(icostmap
CostmapFunctionData
p0
(dp1
S'msg'
p2
ccopy_reg
_reconstructor
p3
(cnav_msgs.msg._OccupancyGrid
OccupancyGrid
p4
c__builtin__
object
p5
Ntp6
Rp7
(lp8
g3
(cstd_msgs.msg._Header
Header
p9
g5
Ntp10
Rp11
(lp12
I0
ag3
(cgenpy.rostime
Time
p13
g5
Ntp14
Rp15
(lp16
I1597804297
aI610669650
abaS'odom_combined'
p17
abag3
(cnav_msgs.msg._MapMetaData
MapMetaData
p18
g5
Ntp19
Rp20
(lp21
g3
(g13
g5
Ntp22
Rp23
(lp24
I0
aI0
abaF0.02500000037252903
aI200
aI200
ag3
(cgeometry_msgs.msg._Pose
Pose
p25
g5
Ntp26
Rp27
(lp28
g3
(cgeometry_msgs.msg._Point
Point
p29
g5
Ntp30
Rp31
(lp32
F-2.1999999999999997
aF-2.199999999999991
aF0.0
abag3
(cgeometry_msgs.msg._Quaternion
Quaternion
p33
g5
Ntp34
Rp35
(lp36
F0.0
aF0.0
aF0.0
aF1.0
abababa(I27
I28
I29
I31
I33
I34
I35
I37
I38
I40
I41
I43
I44
I45
I46
I47
I48
I49
I50
I51
I51
I52
I52
I52
I52
I53
I57
I60
I63
I67
I70
I74
I78
I82
I87
I91
I96
I99
I99
I99
I99
I99
I99
I99
I99
I99
I99
I99
I99
I99
I99
I99
I99
I99
I99
I99
I99
I99
I99
I99
I99
I99
I99
I99
I99
I99
I99
I99
I99
I99
I99
I99
I99
I99
I99
I99
I99
I99
I99
I99
I99
I99
I99
I99
I99
I99
I99
I99
I99
I99
I99
I99
I99
I99
I99
I99
I99
I99
I99
I99
I99
I99
I99
I99
I99
I99
I99
I99
I99
I99
I99
I99
I99
I99
I94
I89
I83
I78
I73
I68
I63
I60
I55
I52
I48
I45
I42
I39
I37
I39
I41
I43
I45
I47
I50
I52
I53
I56
I58
I60
I61
I63
I64
I66
I67
I68
I69
I69
I70
I70
I70
I69
I69
I68
I67
I66
I64
I63
I61
I60
I58
I56
I53
I52
I50
I47
I45
I43
I41
I39
I37
I35
I33
I32
I30
I28
I28
I26
I25
I24
I23
I22
I21
I20
I19
I19
I18
I18
I17
I16
I16
I15
I15
I14
I14
I13
I12
I12
I11
I11
I28
I30
I31
I33
I35
I36
I38
I39
I41
I42
I44
I45
I47
I48
I50
I51
I52
I53
I54
I55
I55
I55
I56
I56
I56
I56
I59
I63
I67
I70
I74
I78
I82
I87
I92
I97
I99
I99
I99
I99
I99
I99
I99
I99
I99
I99
I99
I99
I99
I99
I99
I99
I99
I99
I99
I99
I99
I99
I99
I99
I99
I99
I99
I99
I99
I99
I99
I99
I99
I99
I99
I99
I99
I99
I99
I99
I99
I99
I99
I99
I99
I99
I99
I99
I99
I99
I99
I99
I99
I99
I99
I99
I99
I99
I99
I99
I99
I99
I99
I99
I99
I99
I99
I99
I99
I99
I99
I99
I99
I99
I99
I99
I99
I99
I99
I92
I86
I80
I75
I70
I66
I61
I57
I53
I50
I46
I43
I40
I39
I41
I43
I46
I48
I50
I53
I55
I57
I59
I62
I63
I66
I67
I69
I71
I72
I73
I74
I75
I75
I75
I75
I75
I74
I73
I72
I71
I69
I67
I66
I63
I62
I59
I57
I55
I53
I50
I48
I46
I43
I41
I39
I37
I35
I33
I31
I30
I29
I28
I27
I26
I25
I24
I23
I22
I21
I20
I19
I19
I18
I18
I17
I16
I16
I15
I14
I14
I13
I12
I12
I11
I30
I32
I33
I35
I36
I38
I40
I42
I43
I45
I47
I49
I50
I52
I53
I55
I56
I57
I58
I59
I59
I60
I60
I60
I60
I60
I62
I66
I70
I74
I78
I82
I87
I92
I97
I99
I99
I99
I99
I99
I99
I99
I99
I99
I99
I99
I99
I99
I99
I99
I99
I99
I99
I99
I99
I99
I99
I99
I99
I99
I99
I99
I99
I99
I99
I99
I99
I99
I99
I99
I99
I99
I99
I99
I99
I99
I99
I99
I99
I99
I99
I99
I99
I99
I99
I99
I99
I99
I99
I99
I99
I99
I99
I99
I99
I99
I99
I99
I99
I99
I99
I99
I99
I99
I99
I99
I99
I99
I99
I99
I99
I99
I99
I99
I99
I95
I89
I83
I77
I72
I67
I63
I58
I55
I51
I47
I44
I41
I41
I44
I46
I48
I51
I53
I56
I58
I61
I63
I66
I68
I70
I72
I74
I76
I77
I79
I80
I80
I81
I81
I81
I80
I80
I79
I77
I76
I74
I72
I70
I68
I66
I63
I61
I58
I56
I53
I51
I48
I46
I44
I41
I39
I37
I35
I34
I32
I31
I30
I29
I28
I26
I25
I24
I23
I23
I22
I21
I20
I19
I19
I18
I18
I17
I16
I15
I15
I14
I13
I13
I12
I32
I33
I35
I37
I39
I41
I43
I45
I46
I48
I50
I52
I54
I55
I57
I58
I60
I61
I62
I63
I64
I64
I65
I65
I65
I65
I65
I69
I73
I77
I82
I87
I92
I97
I99
I99
I99
I99
I99
I99
I99
I99
I99
I99
I99
I99
I99
I99
I99
I99
I99
I99
I99
I99
I99
I99
I99
I99
I99
I99
I99
I99
I99
I99
I99
I99
I99
I99
I99
I99
I99
I99
I99
I99
I99
I99
I99
I99
I99
I99
I99
I99
I99
I99
I99
I99
I99
I99
I99
I99
I99
I99
I99
I99
I99
I99
I99
I99
I99
I99
I99
I99
I99
I99
I99
I99
I99
I99
I99
I99
I99
I99
I99
I99
I99
I99
I92
I86
I80
I74
I69
I64
I60
I56
I52
I48
I45
I42
I43
I46
I48
I51
I54
I57
I59
I62
I65
I67
I70
I73
I75
I77
I80
I82
I84
I85
I86
I87
I87
I87
I87
I87
I86
I85
I84
I82
I80
I77
I75
I73
I70
I67
I65
I62
I59
I57
I54
I51
I48
I46
I43
I41
I39
I37
I36
I35
I33
I32
I31
I29
I28
I27
I25
I25
I24
I23
I23
I22
I21
I20
I19
I19
I18
I17
I16
I16
I15
I14
I13
I13
I33
I35
I37
I39
I41
I43
I45
I47
I50
I52
I53
I56
I58
I60
I61
I63
I64
I66
I67
I68
I69
I69
I70
I70
I70
I70
I70
I72
I77
I81
I86
I91
I97
I99
I99
I99
I99
I99
I99
I99
I99
I99
I99
I99
I99
I99
I99
I99
I99
I99
I99
I99
I99
I99
I99
I99
I99
I99
I99
I99
I99
I99
I99
I99
I99
I99
I99
I99
I99
I99
I99
I99
I99
I99
I99
I99
I99
I99
I99
I99
I99
I99
I99
I99
I99
I99
I99
I99
I99
I99
I99
I99
I99
I99
I99
I99
I99
I99
I99
I99
I99
I99
I99
I99
I99
I99
I99
I99
I99
I99
I99
I99
I99
I99
I99
I99
I94
I88
I82
I76
I71
I66
I61
I57
I53
I49
I46
I44
I46
I48
I51
I54
I57
I60
I63
I66
I69
I72
I75
I78
I80
I83
I86
I88
I90
I91
I93
I94
I94
I94
I94
I94
I93
I91
I90
I88
I86
I83
I80
I78
I75
I72
I69
I66
I63
I60
I57
I54
I51
I48
I46
I43
I41
I40
I38
I37
I35
I34
I33
I31
I29
I28
I27
I26
I26
I25
I24
I23
I22
I21
I21
I20
I19
I18
I17
I16
I16
I15
I14
I14
I35
I37
I39
I41
I43
I46
I48
I50
I53
I55
I57
I59
I62
I63
I66
I67
I69
I71
I72
I73
I74
I75
I75
I75
I75
I75
I75
I75
I80
I85
I90
I96
I99
I99
I99
I99
I99
I99
I99
I99
I99
I99
I99
I99
I99
I99
I99
I99
I99
I99
I99
I99
I99
I99
I99
I99
I99
I99
I99
I99
I99
I99
I99
I99
I99
I99
I99
I99
I99
I99
I99
I99
I99
I99
I99
I99
I99
I99
I99
I99
I99
I99
I99
I99
I99
I99
I99
I99
I99
I99
I99
I99
I99
I99
I99
I99
I99
I99
I99
I99
I99
I99
I99
I99
I99
I99
I99
I99
I99
I99
I99
I99
I99
I99
I99
I99
I96
I90
I84
I77
I72
I67
I62
I58
I54
I50
I46
I46
I48
I51
I54
I57
I60
I63
I67
I70
I73
I77
I80
I83
I86
I89
I92
I94
I96
I99
I99
I99
I99
I99
I99
I99
I99
I99
I96
I94
I92
I89
I86
I83
I80
I77
I73
I70
I67
I63
I60
I57
I54
I51
I48
I45
I44
I42
I41
I39
I38
I36
I35
I33
I31
I30
I29
I28
I28
I26
I26
I25
I24
I23
I22
I21
I20
I19
I18
I18
I17
I16
I15
I14
I37
I39
I41
I44
I46
I48
I51
I53
I56
I58
I61
I63
I66
I68
I70
I72
I74
I76
I77
I79
I80
I80
I81
I81
I81
I81
I81
I80
I83
I89
I94
I99
I99
I99
I99
I99
I99
I99
I99
I99
I99
I99
I99
I99
I99
I99
I99
I99
I99
I99
I99
I99
I99
I99
I99
I99
I99
I99
I99
I99
I99
I99
I99
I99
I99
I99
I99
I99
I99
I99
I99
I99
I99
I99
I99
I99
I99
I99
I99
I99
I99
I99
I99
I99
I99
I99
I99
I99
I99
I99
I99
I99
I99
I99
I99
I99
I99
I99
I99
I99
I99
I99
I99
I99
I99
I99
I99
I99
I99
I99
I99
I99
I99
I99
I99
I99
I99
I91
I85
I79
I73
I68
I63
I59
I55
I51
I47
I48
I51
I54
I57
I60
I63
I67
I70
I74
I77
I81
I85
I89
I92
I95
I99
I99
I99
I99
I99
I99
I99
I99
I99
I99
I99
I99
I99
I99
I99
I95
I92
I89
I85
I81
I77
I74
I70
I67
I63
I60
I57
I53
I50
I49
I47
I45
I43
I42
I40
I38
I36
I35
I33
I32
I31
I30
I29
I28
I28
I26
I25
I24
I23
I22
I21
I20
I19
I19
I18
I17
I16
I15
I39
I41
I43
I46
I48
I51
I54
I57
I59
I62
I65
I67
I70
I73
I75
I77
I80
I82
I84
I85
I86
I87
I87
I87
I87
I87
I87
I87
I89
I92
I99
I99
I99
I99
I99
I99
I99
I99
I99
I99
I99
I99
I99
I99
I99
I99
I99
I99
I99
I99
I99
I99
I99
I99
I99
I99
I99
I99
I99
I99
I99
I99
I99
I99
I99
I99
I99
I99
I99
I99
I99
I99
I99
I99
I99
I99
I99
I99
I99
I99
I99
I99
I99
I99
I99
I99
I99
I99
I99
I99
I99
I99
I99
I99
I99
I99
I99
I99
I99
I99
I99
I99
I99
I99
I99
I99
I99
I99
I99
I99
I99
I99
I99
I99
I99
I99
I99
I93
I86
I80
I74
I69
I64
I59
I55
I51
I48
I51
I54
I57
I60
I63
I67
I70
I74
I78
I82
I86
I90
I94
I99
I99
I99
I99
I99
I99
I99
I99
I99
I99
I99
I99
I99
I99
I99
I99
I99
I99
I99
I94
I90
I86
I82
I78
I74
I70
I67
I63
I59
I57
I54
I52
I50
I48
I46
I45
I43
I41
I39
I37
I36
I35
I33
I33
I31
I30
I29
I28
I27
I26
I25
I24
I23
I22
I21
I19
I19
I18
I17
I16
I41
I43
I46
I48
I51
I54
I57
I60
I63
I66
I69
I72
I75
I78
I80
I83
I86
I88
I90
I91
I93
I94
I94
I94
I94
I94
I94
I94
I94
I99
I99
I99
I99
I99
I99
I99
I99
I99
I99
I99
I99
I99
I99
I99
I99
I99
I99
I99
I99
I99
I99
I99
I99
I99
I99
I99
I99
I99
I99
I99
I99
I99
I99
I99
I99
I99
I99
I99
I99
I99
I99
I99
I99
I99
I99
I99
I99
I99
I99
I99
I99
I99
I99
I99
I99
I99
I99
I99
I99
I99
I99
I99
I99
I99
I99
I99
I99
I99
I99
I99
I99
I99
I99
I99
I99
I99
I99
I99
I99
I99
I99
I99
I99
I99
I99
I99
I99
I94
I87
I80
I75
I69
I64
I60
I55
I52
I51
I54
I57
I60
I63
I67
I70
I74
I78
I82
I87
I91
I96
I99
I99
I99
I99
I99
I99
I99
I99
I99
I99
I99
I99
I99
I99
I99
I99
I99
I99
I99
I99
I99
I96
I91
I87
I82
I78
I74
I70
I66
I63
I60
I58
I56
I53
I52
I50
I47
I45
I43
I41
I39
I38
I37
I36
I35
I34
I32
I31
I30
I29
I28
I26
I25
I24
I23
I22
I21
I20
I19
I18
I17
I43
I45
I48
I51
I54
I57
I60
I63
I67
I70
I73
I77
I80
I83
I86
I89
I92
I94
I96
I99
I99
I99
I99
I99
I99
I99
I99
I99
I99
I99
I99
I99
I99
I99
I99
I99
I99
I99
I99
I99
I99
I99
I99
I99
I99
I99
I99
I99
I99
I99
I99
I99
I99
I99
I99
I99
I99
I99
I99
I99
I99
I99
I99
I99
I99
I99
I99
I99
I99
I99
I99
I99
I99
I99
I99
I99
I99
I99
I99
I99
I99
I99
I99
I99
I99
I99
I99
I99
I99
I99
I99
I99
I99
I99
I99
I99
I99
I99
I99
I99
I99
I99
I99
I99
I99
I99
I99
I99
I99
I99
I99
I99
I99
I99
I99
I99
I99
I94
I87
I81
I75
I70
I65
I60
I56
I52
I53
I57
I60
I63
I67
I70
I74
I78
I82
I87
I92
I97
I99
I99
I99
I99
I99
I99
I99
I99
I99
I99
I99
I99
I99
I99
I99
I99
I99
I99
I99
I99
I99
I99
I99
I97
I92
I87
I82
I77
I73
I70
I67
I63
I62
I59
I57
I55
I53
I50
I48
I46
I43
I42
I41
I40
I38
I37
I36
I35
I33
I32
I31
I29
I28
I27
I25
I24
I23
I22
I21
I20
I19
I18
I45
I47
I50
I53
I57
I60
I63
I67
I70
I74
I77
I81
I85
I89
I92
I95
I99
I99
I99
I99
I99
I99
I99
I99
I99
I99
I99
I99
I99
I99
I99
I99
I99
I99
I99
I99
I99
I99
I99
I99
I99
I99
I99
I99
I99
I99
I99
I99
I99
I99
I99
I99
I99
I99
I99
I99
I99
I99
I99
I99
I99
I99
I99
I99
I99
I99
I99
I99
I99
I99
I99
I99
I99
I99
I99
I99
I99
I99
I99
I99
I99
I99
I99
I99
I99
I99
I99
I99
I99
I99
I99
I99
I99
I99
I99
I99
I99
I99
I99
I100
I99
I99
I99
I99
I99
I99
I99
I99
I99
I99
I99
I99
I99
I99
I99
I99
I99
I94
I87
I81
I75
I70
I65
I60
I56
I53
I56
I59
I63
I67
I70
I74
I78
I82
I87
I91
I97
I99
I99
I99
I99
I99
I99
I99
I99
I99
I99
I99
I99
I99
I99
I99
I99
I99
I99
I99
I99
I99
I99
I99
I99
I99
I97
I91
I86
I81
I77
I74
I70
I68
I66
I63
I61
I58
I56
I53
I51
I48
I46
I45
I44
I43
I41
I40
I38
I37
I35
I34
I33
I31
I29
I28
I27
I26
I24
I23
I22
I21
I20
I19
I46
I50
I53
I56
I59
I63
I67
I70
I74
I78
I82
I86
I90
I94
I99
I99
I99
I99
I99
I99
I99
I99
I99
I99
I99
I99
I99
I99
I99
I99
I99
I99
I99
I99
I99
I99
I99
I99
I99
I99
I99
I99
I99
I99
I99
I99
I99
I99
I99
I99
I99
I99
I99
I99
I99
I99
I99
I99
I99
I99
I99
I99
I99
I99
I99
I99
I99
I99
I99
I99
I99
I99
I99
I99
I99
I99
I99
I99
I99
I99
I99
I99
I99
I99
I99
I99
I99
I99
I99
I99
I99
I99
I99
I99
I99
I99
I99
I99
I100
I99
I99
I99
I99
I99
I99
I99
I99
I99
I99
I99
I99
I99
I99
I99
I99
I99
I99
I94
I87
I81
I75
I70
I65
I60
I56
I55
I58
I62
I66
I70
I74
I78
I82
I87
I92
I97
I99
I99
I99
I99
I99
I99
I99
I99
I99
I99
I99
I99
I99
I99
I99
I99
I99
I99
I99
I99
I99
I99
I99
I99
I99
I99
I99
I96
I90
I86
I82
I78
I75
I73
I70
I67
I65
I62
I59
I57
I54
I51
I50
I48
I47
I45
I44
I42
I41
I39
I38
I36
I35
I33
I31
I30
I28
I27
I26
I24
I23
I22
I21
I19
I48
I52
I55
I58
I62
I66
I70
I74
I78
I82
I87
I91
I96
I99
I99
I99
I99
I99
I99
I99
I99
I99
I99
I99
I99
I99
I99
I99
I99
I99
I99
I99
I99
I99
I99
I99
I99
I99
I99
I99
I99
I99
I99
I99
I99
I99
I99
I99
I99
I99
I99
I99
I99
I99
I99
I99
I99
I99
I99
I99
I99
I99
I99
I99
I99
I99
I99
I99
I99
I99
I99
I99
I99
I99
I99
I99
I99
I99
I99
I99
I99
I99
I99
I99
I99
I99
I99
I99
I99
I99
I99
I99
I99
I99
I99
I99
I99
I99
I99
I99
I99
I99
I99
I99
I99
I99
I99
I99
I99
I99
I99
I99
I99
I99
I99
I99
I99
I94
I87
I80
I75
I69
I64
I60
I55
I57
I61
I65
I69
I73
I77
I82
I87
I92
I97
I99
I99
I99
I99
I99
I99
I99
I99
I99
I99
I99
I99
I99
I99
I99
I99
I99
I99
I99
I99
I99
I99
I99
I99
I99
I99
I99
I99
I99
I96
I91
I87
I83
I80
I78
I75
I72
I69
I66
I63
I60
I57
I55
I53
I52
I50
I49
I47
I45
I43
I42
I40
I38
I36
I35
I33
I32
I30
I28
I27
I26
I24
I23
I22
I21
I50
I53
I57
I61
I65
I69
I73
I77
I82
I87
I92
I97
I99
I99
I99
I99
I99
I99
I99
I99
I99
I99
I99
I99
I99
I99
I99
I99
I99
I99
I99
I99
I99
I99
I99
I99
I99
I99
I99
I99
I99
I99
I99
I99
I99
I99
I99
I99
I99
I99
I99
I99
I99
I99
I99
I99
I99
I99
I99
I99
I99
I99
I99
I99
I99
I99
I99
I99
I99
I99
I99
I99
I99
I99
I100
I99
I99
I99
I99
I99
I99
I99
I99
I99
I99
I99
I99
I99
I99
I99
I99
I99
I99
I99
I99
I99
I99
I99
I99
I99
I99
I99
I99
I99
I99
I99
I99
I99
I99
I99
I99
I99
I99
I99
I99
I99
I99
I93
I86
I80
I74
I69
I64
I59
I56
I59
I63
I67
I72
I77
I81
I86
I91
I97
I99
I99
I99
I99
I99
I99
I99
I99
I99
I99
I99
I99
I99
I99
I99
I99
I99
I99
I99
I99
I99
I99
I99
I99
I99
I99
I99
I99
I99
I99
I99
I97
I92
I89
I86
I83
I80
I77
I73
I70
I67
I63
I60
I58
I57
I55
I54
I52
I50
I48
I46
I45
I43
I41
I39
I37
I35
I33
I32
I30
I28
I27
I26
I24
I23
I23
I52
I56
I59
I63
I67
I72
I77
I81
I86
I91
I97
I99
I99
I99
I99
I99
I99
I99
I99
I99
I99
I99
I99
I99
I99
I99
I99
I99
I99
I99
I99
I99
I99
I99
I99
I99
I99
I99
I99
I99
I99
I99
I99
I99
I99
I99
I99
I100
I100
I99
I99
I99
I99
I99
I99
I99
I99
I99
I99
I99
I99
I99
I99
I99
I99
I99
I99
I99
I99
I99
I99
I99
I99
I100
I100
I99
I99
I99
I99
I99
I99
I99
I99
I99
I99
I99
I99
I99
I99
I99
I99
I99
I99
I99
I99
I99
I99
I99
I99
I99
I99
I99
I99
I99
I99
I99
I99
I99
I99
I99
I99
I99
I99
I99
I99
I99
I99
I91
I85
I79
I73
I68
I63
I59
I58
I62
I66
I70
I75
I80
I85
I90
I96
I99
I99
I99
I99
I99
I99
I99
I99
I99
I99
I99
I99
I99
I99
I99
I99
I99
I99
I99
I99
I99
I99
I99
I99
I99
I99
I99
I99
I99
I99
I99
I99
I99
I99
I95
I92
I89
I85
I81
I77
I74
I70
I67
I64
I63
I61
I60
I58
I56
I53
I52
I50
I47
I45
I43
I41
I39
I37
I35
I33
I32
I30
I28
I27
I25
I24
I24
I54
I58
I62
I66
I70
I75
I80
I85
I90
I96
I99
I99
I99
I99
I99
I99
I99
I99
I99
I99
I99
I99
I99
I99
I99
I99
I99
I99
I99
I99
I99
I99
I99
I99
I99
I99
I99
I99
I99
I99
I99
I99
I99
I99
I99
I99
I100
I100
I99
I99
I99
I99
I99
I99
I99
I99
I99
I99
I99
I99
I99
I99
I99
I99
I99
I99
I99
I99
I99
I99
I99
I99
I99
I99
I100
I99
I99
I99
I99
I99
I99
I99
I99
I99
I99
I99
I99
I99
I99
I99
I99
I99
I99
I99
I99
I99
I99
I99
I99
I99
I99
I99
I99
I99
I99
I99
I99
I99
I99
I99
I99
I99
I99
I99
I99
I99
I96
I90
I84
I77
I72
I67
I62
I58
I60
I63
I68
I73
I78
I83
I89
I94
I99
I99
I99
I99
I99
I99
I99
I99
I99
I99
I99
I99
I99
I99
I99
I99
I99
I99
I99
I99
I99
I99
I99
I99
I99
I99
I99
I99
I99
I99
I99
I99
I99
I99
I99
I99
I99
I94
I90
I86
I82
I78
I74
I71
I69
I67
I66
I63
I62
I59
I57
I55
I53
I50
I48
I46
I43
I41
I39
I37
I35
I33
I32
I30
I28
I27
I26
I26
I55
I60
I63
I68
I73
I78
I83
I89
I94
I99
I99
I99
I99
I99
I99
I99
I99
I99
I99
I99
I99
I99
I99
I99
I99
I99
I99
I99
I99
I99
I99
I99
I99
I99
I99
I99
I99
I99
I99
I99
I99
I99
I99
I99
I99
I100
I100
I99
I99
I99
I99
I99
I99
I99
I99
I99
I99
I99
I99
I99
I99
I99
I99
I99
I99
I99
I99
I99
I99
I99
I99
I99
I100
I100
I99
I99
I99
I99
I99
I99
I99
I99
I99
I99
I99
I99
I99
I99
I99
I99
I99
I99
I99
I99
I99
I99
I99
I99
I99
I99
I99
I99
I99
I99
I99
I99
I99
I99
I99
I99
I99
I99
I99
I99
I99
I99
I94
I88
I82
I76
I71
I66
I61
I57
I61
I66
I70
I75
I80
I86
I92
I99
I99
I99
I99
I99
I99
I99
I99
I99
I99
I99
I99
I99
I99
I99
I99
I99
I99
I99
I99
I99
I99
I99
I99
I99
I99
I99
I99
I99
I99
I99
I99
I99
I99
I99
I99
I99
I99
I99
I96
I91
I87
I82
I78
I76
I74
I72
I70
I68
I66
I63
I61
I58
I56
I53
I51
I48
I46
I44
I41
I39
I37
I35
I33
I31
I29
I28
I28
I28
I57
I61
I66
I70
I75
I80
I86
I92
I99
I99
I99
I99
I99
I99
I99
I99
I99
I99
I99
I99
I99
I99
I99
I99
I99
I99
I99
I99
I99
I99
I99
I99
I99
I99
I99
I99
I99
I99
I99
I99
I99
I99
I99
I99
I99
I99
I99
I99
I99
I99
I99
I99
I99
I99
I99
I99
I99
I99
I100
I99
I99
I99
I99
I99
I99
I99
I99
I99
I99
I99
I99
I99
I100
I100
I99
I99
I99
I99
I99
I99
I99
I99
I99
I100
I99
I99
I99
I99
I99
I99
I99
I99
I99
I99
I99
I99
I99
I99
I99
I99
I99
I99
I99
I99
I99
I99
I99
I99
I99
I99
I99
I99
I99
I99
I99
I99
I92
I86
I80
I74
I69
I64
I60
I58
I63
I67
I72
I77
I83
I89
I95
I99
I99
I99
I99
I99
I99
I99
I99
I99
I99
I99
I99
I99
I99
I99
I99
I99
I99
I99
I99
I99
I99
I99
I99
I99
I99
I99
I99
I99
I99
I99
I99
I99
I99
I99
I99
I99
I99
I99
I99
I97
I92
I87
I84
I82
I80
I77
I75
I73
I70
I67
I65
I62
I59
I57
I54
I51
I48
I46
I44
I41
I39
I37
I35
I33
I31
I31
I31
I31
I58
I63
I67
I72
I77
I83
I89
I95
I99
I99
I99
I99
I99
I99
I99
I99
I99
I99
I99
I99
I99
I99
I99
I99
I99
I99
I99
I99
I99
I99
I99
I99
I99
I99
I99
I99
I99
I99
I99
I99
I99
I99
I99
I99
I99
I99
I99
I99
I99
I99
I99
I100
I99
I99
I99
I99
I99
I99
I99
I100
I99
I99
I99
I99
I99
I99
I99
I99
I99
I99
I99
I99
I100
I99
I99
I99
I99
I99
I99
I99
I99
I99
I100
I99
I99
I99
I99
I99
I99
I99
I99
I99
I99
I99
I99
I99
I99
I99
I99
I99
I99
I99
I99
I99
I99
I99
I99
I99
I99
I99
I99
I99
I99
I99
I99
I95
I89
I83
I77
I72
I67
I63
I58
I60
I64
I69
I74
I80
I86
I92
I99
I99
I99
I99
I99
I99
I99
I99
I99
I99
I99
I99
I99
I99
I99
I99
I99
I99
I99
I99
I99
I99
I99
I99
I99
I99
I99
I99
I99
I99
I99
I99
I99
I99
I99
I99
I99
I99
I99
I99
I99
I99
I97
I91
I90
I88
I86
I83
I80
I78
I75
I72
I69
I66
I63
I60
I57
I54
I51
I48
I46
I43
I41
I39
I36
I35
I33
I33
I33
I33
I60
I64
I69
I74
I80
I86
I92
I99
I99
I99
I99
I99
I99
I99
I99
I99
I99
I99
I99
I99
I99
I99
I99
I99
I99
I99
I99
I99
I99
I99
I99
I99
I99
I99
I99
I99
I99
I99
I99
I99
I99
I99
I99
I99
I99
I99
I99
I99
I99
I99
I99
I99
I99
I99
I99
I99
I99
I99
I99
I100
I99
I100
I99
I99
I99
I99
I99
I99
I99
I99
I99
I99
I99
I99
I99
I99
I99
I99
I99
I99
I99
I99
I99
I100
I99
I99
I99
I99
I99
I99
I99
I99
I99
I99
I99
I99
I99
I99
I99
I99
I99
I99
I99
I99
I99
I99
I99
I99
I99
I99
I99
I99
I99
I99
I99
I92
I86
I80
I75
I70
I66
I61
I57
I61
I66
I71
I76
I82
I88
I94
I99
I99
I99
I99
I99
I99
I99
I99
I99
I99
I99
I99
I99
I99
I99
I99
I99
I99
I99
I99
I99
I99
I99
I99
I99
I99
I99
I99
I99
I99
I99
I99
I99
I99
I99
I99
I99
I99
I99
I99
I99
I99
I99
I99
I96
I94
I92
I89
I86
I83
I80
I77
I73
I70
I67
I63
I60
I57
I54
I51
I48
I46
I43
I41
I38
I36
I36
I36
I36
I35
I61
I66
I71
I76
I82
I88
I94
I99
I99
I99
I99
I99
I99
I99
I99
I99
I99
I99
I99
I99
I99
I99
I99
I99
I99
I99
I99
I99
I99
I99
I99
I99
I99
I99
I99
I99
I99
I99
I99
I99
I99
I99
I99
I99
I99
I99
I99
I99
I99
I99
I99
I99
I99
I100
I100
I99
I99
I99
I99
I100
I100
I100
I99
I99
I99
I99
I99
I99
I99
I99
I99
I99
I99
I99
I99
I99
I99
I99
I99
I100
I99
I99
I100
I100
I99
I99
I99
I99
I99
I99
I99
I99
I99
I99
I99
I99
I99
I99
I99
I99
I99
I99
I99
I99
I99
I99
I99
I99
I99
I99
I99
I99
I99
I99
I94
I89
I83
I78
I73
I68
I63
I60
I58
I62
I67
I72
I77
I84
I90
I96
I99
I99
I99
I99
I99
I99
I99
I99
I99
I99
I99
I99
I99
I99
I99
I99
I99
I99
I99
I99
I99
I99
I99
I99
I99
I99
I99
I99
I99
I99
I99
I99
I99
I99
I99
I99
I99
I99
I99
I99
I99
I99
I99
I99
I99
I99
I99
I95
I92
I89
I85
I81
I77
I74
I70
I67
I63
I60
I57
I54
I51
I48
I45
I43
I40
I38
I38
I38
I38
I38
I62
I67
I72
I77
I84
I90
I96
I99
I99
I99
I99
I99
I99
I99
I99
I99
I99
I99
I99
I99
I99
I99
I99
I99
I99
I99
I99
I99
I99
I99
I99
I99
I99
I99
I99
I99
I99
I99
I99
I99
I99
I99
I99
I99
I99
I99
I99
I99
I99
I99
I99
I99
I99
I99
I99
I99
I99
I99
I99
I100
I100
I100
I99
I99
I99
I99
I99
I99
I99
I99
I99
I99
I99
I99
I99
I99
I99
I99
I99
I99
I99
I100
I100
I100
I99
I99
I99
I99
I99
I99
I99
I99
I99
I99
I99
I99
I99
I99
I99
I99
I99
I99
I99
I99
I99
I99
I99
I99
I99
I99
I99
I99
I99
I96
I90
I85
I80
I75
I70
I66
I62
I58
I59
I63
I68
I73
I79
I85
I91
I99
I99
I99
I99
I99
I99
I99
I99
I99
I99
I99
I99
I99
I99
I99
I99
I99
I99
I99
I99
I99
I99
I99
I99
I99
I99
I99
I99
I99
I99
I99
I99
I99
I99
I99
I99
I99
I99
I99
I99
I99
I99
I99
I99
I99
I99
I99
I99
I99
I99
I94
I90
I86
I82
I78
I74
I70
I67
I63
I60
I57
I53
I50
I47
I45
I42
I41
I41
I41
I41
I41
I63
I68
I73
I79
I85
I91
I99
I99
I99
I99
I99
I99
I99
I99
I99
I99
I99
I99
I99
I99
I99
I99
I99
I99
I99
I99
I99
I99
I99
I99
I99
I99
I99
I99
I99
I99
I99
I99
I99
I99
I99
I99
I99
I99
I99
I99
I99
I99
I99
I99
I99
I99
I99
I99
I99
I99
I99
I99
I99
I100
I100
I99
I99
I99
I99
I99
I99
I99
I99
I99
I99
I99
I99
I99
I99
I99
I99
I99
I99
I100
I99
I100
I100
I100
I99
I99
I99
I99
I99
I99
I99
I99
I99
I99
I99
I99
I99
I99
I99
I99
I99
I99
I99
I99
I99
I99
I99
I99
I99
I99
I99
I99
I97
I91
I86
I81
I77
I72
I67
I63
I59
I56
I59
I64
I69
I74
I80
I86
I93
I99
I99
I99
I99
I99
I99
I99
I99
I99
I99
I99
I99
I99
I99
I99
I99
I99
I99
I99
I99
I100
I99
I99
I99
I99
I99
I99
I99
I99
I99
I99
I99
I99
I99
I99
I99
I99
I99
I99
I99
I99
I99
I99
I99
I99
I99
I99
I99
I99
I99
I99
I96
I91
I87
I82
I78
I74
I70
I67
I63
I59
I56
I53
I50
I46
I44
I45
I45
I45
I45
I44
I64
I69
I74
I80
I86
I93
I99
I99
I99
I99
I99
I99
I99
I99
I99
I99
I99
I99
I99
I99
I99
I99
I99
I99
I99
I99
I99
I99
I99
I99
I99
I99
I99
I99
I99
I99
I99
I99
I100
I99
I99
I99
I99
I99
I99
I99
I99
I99
I99
I99
I99
I99
I99
I99
I99
I99
I99
I99
I100
I100
I100
I99
I99
I99
I99
I100
I99
I99
I99
I99
I99
I99
I99
I99
I99
I99
I99
I99
I100
I99
I100
I100
I100
I99
I99
I99
I99
I99
I99
I99
I99
I99
I99
I99
I99
I99
I99
I99
I99
I99
I99
I99
I99
I99
I99
I99
I99
I99
I99
I99
I99
I97
I92
I87
I82
I77
I73
I69
I65
I61
I57
I55
I60
I64
I69
I75
I80
I87
I94
I99
I99
I99
I99
I99
I99
I99
I99
I99
I99
I99
I99
I99
I99
I99
I99
I99
I99
I99
I99
I100
I99
I99
I99
I99
I99
I99
I99
I99
I99
I99
I99
I99
I99
I99
I99
I99
I99
I99
I99
I99
I99
I99
I99
I99
I99
I99
I99
I99
I99
I99
I99
I97
I92
I87
I82
I78
I74
I70
I66
I62
I58
I55
I52
I48
I48
I48
I48
I48
I48
I48
I64
I69
I75
I80
I87
I94
I99
I99
I99
I99
I99
I99
I99
I99
I99
I99
I99
I99
I99
I99
I99
I99
I99
I99
I99
I99
I99
I99
I99
I99
I99
I99
I99
I99
I99
I99
I99
I99
I99
I99
I99
I99
I99
I99
I99
I99
I99
I99
I99
I99
I99
I99
I99
I99
I99
I99
I99
I100
I99
I100
I99
I99
I99
I99
I99
I99
I99
I99
I99
I99
I99
I99
I99
I99
I99
I99
I99
I99
I99
I100
I100
I100
I100
I99
I99
I99
I99
I99
I99
I99
I99
I99
I99
I99
I99
I99
I99
I99
I99
I99
I99
I99
I99
I99
I99
I99
I99
I99
I99
I99
I97
I92
I87
I82
I78
I74
I70
I66
I62
I58
I55
I56
I60
I65
I70
I75
I81
I87
I94
I99
I99
I99
I99
I99
I99
I99
I99
I99
I99
I99
I99
I99
I99
I99
I99
I99
I99
I100
I99
I100
I100
I99
I99
I99
I99
I99
I99
I99
I99
I99
I99
I99
I99
I99
I99
I99
I99
I99
I99
I99
I99
I99
I99
I99
I99
I99
I99
I99
I99
I99
I99
I99
I97
I92
I87
I82
I77
I73
I69
I65
I61
I57
I53
I51
I52
I52
I52
I52
I52
I52
I65
I70
I75
I81
I87
I94
I99
I99
I99
I99
I99
I99
I99
I99
I99
I99
I99
I99
I99
I99
I99
I99
I99
I99
I99
I99
I99
I99
I99
I99
I99
I99
I99
I99
I99
I99
I99
I99
I100
I99
I99
I99
I99
I99
I99
I99
I99
I99
I99
I99
I99
I99
I99
I99
I99
I99
I99
I100
I100
I100
I99
I99
I99
I99
I99
I100
I100
I100
I99
I99
I100
I99
I99
I99
I99
I99
I100
I100
I100
I100
I100
I100
I100
I99
I99
I99
I99
I99
I99
I99
I99
I99
I99
I99
I99
I99
I99
I99
I99
I99
I99
I99
I99
I99
I99
I99
I99
I99
I99
I96
I91
I87
I82
I78
I74
I70
I67
I63
I59
I56
I53
I56
I60
I65
I70
I75
I81
I87
I94
I99
I99
I99
I99
I99
I99
I99
I99
I99
I99
I99
I99
I99
I99
I99
I99
I99
I100
I99
I99
I100
I99
I99
I99
I99
I99
I99
I99
I99
I99
I99
I99
I99
I99
I99
I99
I99
I99
I99
I99
I99
I99
I99
I99
I99
I99
I99
I99
I99
I99
I99
I99
I99
I99
I97
I91
I86
I81
I77
I72
I67
I63
I59
I56
I55
I55
I56
I56
I56
I56
I55
I65
I70
I75
I81
I87
I94
I99
I99
I99
I99
I99
I99
I99
I99
I99
I99
I99
I99
I99
I99
I99
I99
I99
I100
I100
I100
I99
I99
I99
I99
I99
I99
I99
I99
I99
I99
I100
I99
I99
I100
I99
I99
I99
I99
I99
I99
I99
I99
I99
I99
I99
I99
I99
I99
I99
I99
I100
I100
I100
I100
I99
I99
I99
I99
I99
I100
I100
I100
I100
I100
I100
I100
I100
I100
I100
I100
I100
I100
I100
I100
I100
I100
I99
I99
I99
I99
I99
I99
I99
I99
I99
I99
I99
I99
I99
I99
I99
I99
I99
I99
I99
I99
I99
I99
I99
I99
I99
I99
I94
I90
I86
I82
I78
I74
I70
I67
I63
I60
I57
I53
I52
I56
I60
I65
I70
I75
I81
I87
I94
I99
I99
I99
I99
I99
I99
I99
I99
I99
I99
I99
I99
I99
I99
I99
I99
I99
I100
I100
I100
I100
I99
I99
I99
I100
I99
I99
I99
I99
I99
I99
I99
I99
I99
I99
I99
I99
I99
I99
I99
I99
I99
I99
I99
I99
I99
I99
I99
I99
I99
I99
I99
I99
I99
I99
I96
I90
I85
I80
I75
I70
I66
I62
I59
I59
I60
I60
I60
I60
I60
I60
I65
I70
I75
I81
I87
I94
I99
I99
I99
I99
I99
I99
I99
I99
I99
I99
I99
I99
I99
I99
I99
I99
I99
I99
I100
I100
I100
I99
I99
I99
I99
I99
I99
I99
I99
I99
I100
I99
I100
I100
I99
I99
I99
I99
I99
I99
I99
I99
I99
I99
I99
I99
I99
I99
I99
I100
I100
I100
I100
I100
I99
I99
I99
I99
I99
I99
I100
I100
I100
I100
I100
I100
I100
I100
I100
I100
I100
I100
I100
I100
I100
I99
I99
I99
I99
I99
I99
I99
I99
I99
I99
I99
I99
I99
I99
I99
I99
I99
I99
I99
I99
I99
I99
I99
I99
I99
I95
I92
I89
I85
I81
I77
I74
I70
I67
I63
I60
I57
I54
I51
I52
I56
I60
I65
I70
I75
I81
I87
I94
I99
I99
I99
I99
I99
I99
I99
I99
I99
I99
I99
I99
I99
I99
I99
I99
I99
I100
I100
I100
I100
I99
I99
I100
I100
I100
I99
I99
I99
I99
I99
I99
I99
I99
I99
I99
I99
I99
I99
I99
I99
I99
I99
I99
I99
I99
I99
I99
I99
I99
I99
I99
I99
I99
I99
I99
I94
I89
I83
I78
I73
I68
I63
I63
I64
I64
I65
I65
I65
I65
I64
I64
I69
I75
I80
I87
I94
I99
I99
I99
I99
I99
I99
I99
I99
I99
I99
I99
I99
I99
I99
I99
I99
I99
I99
I100
I100
I99
I99
I99
I99
I99
I99
I99
I99
I99
I99
I99
I99
I100
I99
I99
I99
I99
I99
I99
I99
I99
I99
I99
I99
I99
I99
I99
I100
I100
I99
I100
I100
I100
I100
I99
I99
I99
I99
I99
I99
I99
I99
I100
I100
I100
I100
I100
I100
I100
I100
I100
I100
I100
I99
I99
I99
I99
I99
I99
I99
I99
I99
I99
I99
I99
I99
I99
I99
I99
I99
I99
I99
I99
I99
I99
I99
I99
I96
I94
I92
I89
I86
I83
I80
I77
I73
I70
I67
I63
I60
I57
I54
I51
I48
I52
I56
I60
I65
I70
I75
I81
I87
I94
I99
I99
I99
I99
I99
I99
I99
I99
I99
I99
I99
I99
I99
I99
I99
I99
I99
I100
I100
I100
I99
I99
I99
I100
I100
I100
I99
I99
I99
I99
I99
I99
I99
I99
I99
I99
I99
I99
I99
I99
I99
I99
I99
I99
I99
I99
I99
I99
I99
I99
I99
I99
I99
I99
I99
I99
I99
I92
I86
I80
I75
I70
I67
I68
I69
I69
I70
I70
I70
I70
I69
I64
I69
I74
I80
I86
I93
I99
I99
I99
I99
I99
I99
I99
I99
I99
I99
I99
I99
I99
I99
I99
I99
I99
I99
I99
I100
I99
I99
I99
I99
I99
I99
I99
I99
I99
I99
I100
I99
I99
I99
I99
I99
I99
I99
I99
I99
I99
I99
I99
I99
I99
I99
I99
I99
I99
I100
I100
I100
I100
I99
I99
I99
I99
I99
I99
I99
I99
I99
I99
I100
I100
I100
I100
I100
I100
I100
I100
I99
I99
I99
I99
I99
I99
I99
I99
I99
I99
I99
I99
I99
I99
I99
I99
I99
I99
I99
I99
I99
I99
I99
I94
I93
I91
I90
I88
I86
I83
I80
I78
I75
I72
I69
I66
I63
I60
I57
I54
I51
I48
I48
I52
I56
I60
I65
I70
I75
I81
I87
I94
I99
I99
I99
I99
I99
I99
I99
I99
I99
I99
I99
I99
I99
I99
I99
I99
I99
I99
I100
I100
I100
I99
I99
I99
I100
I100
I99
I99
I99
I99
I99
I99
I99
I99
I99
I99
I99
I99
I99
I99
I99
I99
I99
I99
I99
I99
I99
I99
I99
I99
I99
I99
I99
I99
I99
I99
I99
I95
I89
I83
I77
I72
I72
I73
I74
I75
I75
I75
I75
I75
I75
I63
I68
I73
I79
I85
I91
I99
I99
I99
I99
I99
I99
I99
I99
I99
I99
I99
I99
I99
I99
I99
I99
I99
I99
I99
I100
I99
I99
I99
I99
I99
I99
I99
I99
I99
I99
I100
I100
I100
I99
I99
I99
I99
I99
I99
I99
I99
I99
I99
I99
I99
I99
I100
I100
I100
I100
I100
I100
I99
I99
I99
I99
I99
I99
I99
I99
I99
I99
I99
I99
I99
I99
I99
I99
I99
I99
I99
I99
I99
I99
I99
I99
I99
I99
I99
I99
I99
I99
I99
I99
I99
I99
I99
I99
I99
I99
I99
I99
I99
I96
I90
I86
I85
I84
I82
I80
I77
I75
I73
I70
I67
I65
I62
I59
I57
I54
I51
I48
I46
I48
I52
I55
I60
I64
I69
I75
I80
I87
I94
I99
I99
I99
I99
I99
I99
I99
I99
I99
I99
I99
I99
I99
I99
I99
I99
I99
I99
I100
I100
I100
I99
I99
I100
I100
I99
I99
I99
I100
I100
I100
I99
I99
I99
I99
I99
I99
I99
I99
I99
I99
I99
I99
I99
I99
I99
I99
I99
I99
I99
I99
I99
I99
I99
I99
I99
I99
I99
I92
I86
I80
I76
I77
I79
I80
I80
I81
I81
I81
I81
I80
I62
I67
I72
I77
I84
I90
I96
I99
I99
I99
I99
I99
I99
I99
I99
I99
I99
I99
I99
I99
I99
I99
I99
I99
I99
I99
I100
I99
I99
I99
I99
I99
I99
I99
I99
I99
I99
I99
I99
I99
I99
I99
I99
I99
I99
I99
I99
I99
I99
I99
I99
I100
I100
I100
I100
I100
I100
I100
I99
I99
I99
I99
I99
I99
I99
I99
I99
I99
I99
I99
I99
I99
I99
I99
I99
I99
I99
I99
I99
I99
I99
I99
I99
I99
I99
I99
I99
I99
I99
I99
I99
I99
I99
I99
I99
I99
I99
I99
I99
I94
I88
I82
I79
I77
I76
I74
I72
I70
I68
I66
I63
I61
I58
I56
I53
I51
I48
I46
I44
I47
I51
I55
I59
I64
I69
I74
I80
I86
I93
I99
I99
I99
I99
I99
I99
I99
I99
I99
I99
I99
I99
I99
I99
I99
I99
I99
I99
I100
I100
I100
I100
I99
I100
I100
I100
I99
I100
I100
I100
I99
I99
I99
I99
I99
I99
I99
I99
I99
I99
I99
I99
I99
I99
I99
I99
I99
I99
I99
I99
I99
I99
I99
I99
I99
I99
I99
I99
I94
I88
I82
I82
I84
I85
I86
I87
I87
I87
I87
I87
I87
I61
I66
I71
I76
I82
I88
I94
I99
I99
I99
I99
I99
I99
I99
I99
I99
I99
I99
I99
I99
I99
I99
I99
I99
I99
I99
I99
I99
I99
I99
I99
I99
I99
I99
I99
I99
I99
I99
I99
I99
I99
I99
I99
I99
I99
I99
I99
I99
I99
I99
I99
I100
I99
I100
I100
I100
I100
I100
I99
I99
I99
I99
I99
I99
I99
I99
I99
I99
I99
I99
I99
I99
I99
I99
I99
I99
I99
I99
I99
I99
I99
I99
I99
I99
I99
I99
I99
I99
I99
I99
I99
I99
I99
I99
I99
I99
I99
I99
I99
I92
I86
I80
I74
I72
I71
I69
I67
I66
I63
I62
I59
I57
I55
I53
I50
I48
I46
I43
I44
I47
I51
I55
I59
I63
I68
I73
I79
I85
I91
I99
I99
I99
I99
I99
I99
I99
I99
I99
I99
I99
I99
I99
I99
I99
I99
I99
I99
I100
I100
I100
I100
I100
I100
I100
I100
I100
I100
I100
I100
I100
I100
I99
I99
I99
I99
I99
I99
I99
I99
I99
I99
I99
I99
I99
I99
I99
I99
I99
I99
I99
I99
I99
I99
I99
I99
I99
I99
I96
I90
I86
I88
I90
I91
I93
I94
I94
I94
I94
I94
I94
I60
I64
I69
I74
I80
I86
I92
I99
I99
I99
I99
I99
I99
I99
I99
I99
I99
I99
I99
I99
I99
I99
I99
I99
I99
I99
I99
I99
I99
I99
I99
I99
I99
I99
I99
I99
I99
I99
I99
I99
I99
I99
I99
I99
I99
I99
I100
I100
I99
I99
I100
I100
I100
I100
I100
I100
I100
I99
I99
I99
I99
I99
I99
I99
I99
I99
I99
I99
I99
I99
I99
I99
I99
I99
I99
I99
I99
I99
I99
I99
I99
I99
I99
I99
I99
I99
I99
I99
I99
I99
I99
I99
I99
I99
I99
I99
I99
I99
I95
I89
I83
I77
I72
I67
I66
I64
I63
I61
I60
I58
I56
I53
I52
I50
I47
I45
I43
I41
I43
I46
I50
I54
I58
I62
I67
I72
I77
I84
I90
I96
I99
I99
I99
I99
I99
I99
I99
I99
I99
I99
I99
I99
I99
I99
I99
I99
I99
I100
I100
I100
I100
I100
I100
I100
I100
I100
I100
I100
I100
I100
I99
I99
I99
I99
I99
I99
I99
I99
I99
I99
I99
I99
I99
I99
I99
I99
I99
I99
I99
I99
I99
I99
I99
I99
I99
I99
I99
I99
I91
I92
I94
I96
I99
I99
I99
I99
I99
I99
I99
I99
I63
I67
I70
I74
I78
I83
I89
I95
I99
I99
I99
I99
I99
I99
I99
I99
I99
I99
I99
I99
I99
I99
I99
I99
I99
I99
I99
I99
I99
I99
I100
I99
I99
I99
I99
I99
I99
I99
I99
I99
I99
I99
I99
I99
I99
I99
I99
I100
I100
I100
I100
I100
I100
I100
I100
I100
I99
I99
I99
I99
I99
I99
I99
I99
I99
I99
I99
I99
I99
I99
I99
I99
I99
I99
I99
I99
I99
I99
I99
I99
I99
I99
I99
I99
I99
I99
I99
I99
I99
I99
I99
I99
I99
I99
I99
I99
I99
I99
I92
I86
I80
I75
I70
I66
I61
I60
I58
I57
I55
I54
I52
I50
I48
I46
I45
I43
I41
I40
I43
I46
I49
I53
I57
I61
I66
I71
I76
I82
I88
I94
I99
I99
I99
I99
I99
I99
I99
I99
I99
I99
I99
I99
I99
I99
I99
I99
I99
I100
I100
I100
I100
I100
I100
I100
I100
I100
I100
I99
I99
I100
I99
I99
I99
I99
I99
I99
I99
I99
I99
I99
I99
I99
I99
I99
I99
I99
I99
I99
I99
I99
I99
I99
I99
I99
I99
I99
I99
I99
I95
I99
I99
I99
I99
I99
I99
I99
I99
I99
I99
I99
I66
I70
I74
I78
I82
I87
I91
I96
I99
I99
I99
I99
I99
I99
I99
I99
I99
I99
I99
I99
I99
I99
I99
I99
I99
I99
I99
I99
I99
I99
I99
I99
I99
I99
I99
I99
I99
I99
I99
I99
I99
I99
I99
I99
I99
I99
I99
I99
I100
I100
I100
I100
I100
I100
I100
I100
I99
I99
I99
I99
I99
I99
I99
I99
I99
I99
I99
I99
I99
I99
I99
I99
I99
I99
I99
I99
I99
I99
I99
I99
I99
I99
I99
I99
I99
I99
I99
I99
I99
I99
I99
I99
I99
I99
I99
I99
I99
I94
I89
I83
I78
I73
I68
I63
I60
I56
I55
I53
I52
I50
I49
I47
I45
I43
I42
I40
I38
I39
I42
I45
I48
I52
I56
I60
I65
I70
I75
I81
I87
I94
I99
I99
I99
I99
I99
I99
I99
I99
I99
I99
I99
I99
I99
I99
I99
I99
I99
I100
I100
I100
I100
I100
I99
I100
I100
I100
I100
I100
I99
I99
I99
I99
I99
I99
I99
I99
I99
I99
I99
I99
I99
I99
I99
I99
I99
I99
I99
I99
I99
I99
I99
I99
I99
I99
I99
I99
I99
I99
I99
I99
I99
I99
I99
I99
I99
I99
I99
I99
I99
I99
I69
I73
I77
I82
I87
I92
I97
I99
I99
I99
I99
I99
I99
I99
I99
I99
I99
I99
I99
I99
I99
I99
I99
I99
I99
I99
I99
I99
I99
I99
I99
I99
I99
I99
I99
I99
I99
I99
I99
I99
I99
I99
I99
I99
I99
I99
I99
I99
I100
I100
I100
I100
I99
I100
I100
I99
I99
I99
I99
I99
I99
I99
I99
I99
I99
I99
I99
I99
I99
I99
I99
I99
I99
I99
I99
I99
I99
I99
I99
I99
I99
I99
I99
I99
I99
I99
I99
I99
I99
I99
I99
I99
I99
I99
I99
I99
I96
I90
I85
I80
I75
I70
I66
I62
I58
I54
I51
I50
I48
I47
I45
I44
I42
I41
I39
I38
I36
I38
I41
I45
I48
I52
I56
I60
I65
I70
I75
I81
I87
I94
I99
I99
I99
I99
I99
I99
I99
I99
I99
I99
I99
I99
I99
I99
I99
I99
I99
I99
I100
I100
I100
I100
I100
I100
I100
I100
I100
I100
I100
I100
I99
I99
I99
I99
I99
I99
I99
I99
I99
I100
I99
I99
I99
I99
I99
I99
I99
I99
I99
I99
I99
I99
I99
I99
I99
I99
I99
I99
I99
I99
I99
I99
I99
I99
I99
I99
I99
I99
I99
I99
I72
I77
I81
I86
I91
I97
I99
I99
I99
I99
I99
I99
I99
I99
I99
I99
I99
I99
I99
I99
I99
I99
I99
I99
I99
I99
I99
I99
I99
I99
I99
I99
I99
I99
I99
I99
I99
I99
I99
I99
I99
I99
I99
I99
I99
I99
I99
I99
I100
I100
I100
I99
I99
I99
I99
I99
I99
I99
I99
I99
I99
I99
I99
I99
I99
I99
I99
I99
I99
I99
I99
I99
I99
I99
I99
I99
I99
I99
I99
I99
I99
I99
I99
I99
I99
I99
I99
I99
I99
I99
I99
I99
I99
I99
I99
I97
I91
I86
I81
I77
I72
I67
I63
I59
I56
I52
I49
I46
I45
I44
I43
I41
I40
I38
I37
I35
I35
I38
I41
I44
I48
I52
I55
I60
I64
I69
I75
I80
I87
I94
I99
I99
I99
I99
I99
I99
I99
I99
I99
I99
I99
I99
I99
I99
I99
I99
I99
I99
I99
I100
I100
I100
I100
I100
I100
I100
I100
I100
I100
I100
I99
I99
I99
I99
I99
I99
I99
I100
I100
I100
I100
I99
I99
I99
I99
I99
I99
I99
I99
I99
I99
I99
I99
I99
I99
I99
I99
I99
I99
I99
I99
I99
I99
I99
I99
I99
I99
I99
I99
I99
I75
I80
I85
I90
I96
I99
I99
I99
I99
I99
I99
I99
I99
I99
I99
I99
I99
I99
I99
I99
I99
I99
I99
I99
I99
I99
I99
I99
I99
I99
I99
I99
I99
I99
I99
I99
I99
I99
I99
I99
I99
I99
I99
I99
I99
I99
I99
I99
I100
I100
I100
I99
I99
I99
I99
I99
I99
I99
I99
I99
I99
I99
I99
I99
I99
I99
I99
I99
I99
I99
I99
I99
I99
I99
I99
I99
I99
I99
I99
I99
I99
I99
I99
I99
I99
I99
I99
I99
I99
I99
I99
I99
I99
I99
I97
I92
I87
I82
I77
I73
I69
I65
I61
I57
I53
I50
I47
I44
I42
I41
I40
I38
I37
I36
I35
I33
I35
I38
I41
I44
I47
I51
I55
I59
I64
I69
I74
I80
I86
I93
I99
I99
I99
I99
I99
I99
I99
I99
I99
I99
I99
I99
I99
I99
I99
I99
I99
I99
I99
I99
I100
I100
I100
I100
I99
I100
I100
I100
I100
I100
I100
I100
I99
I99
I99
I100
I100
I100
I100
I100
I99
I99
I99
I99
I99
I99
I99
I99
I99
I99
I99
I99
I99
I99
I99
I99
I99
I99
I99
I99
I99
I99
I99
I99
I99
I99
I99
I99
I99
I99
I78
I83
I89
I94
I99
I99
I99
I99
I99
I99
I99
I99
I99
I99
I99
I99
I99
I99
I99
I99
I99
I99
I99
I99
I99
I99
I99
I99
I99
I99
I99
I99
I99
I99
I99
I99
I99
I99
I99
I99
I99
I99
I99
I99
I99
I99
I99
I100
I100
I100
I100
I99
I99
I99
I99
I99
I99
I99
I99
I99
I99
I99
I99
I99
I99
I99
I99
I99
I99
I99
I99
I99
I99
I99
I99
I99
I99
I99
I99
I99
I99
I99
I99
I99
I99
I99
I99
I99
I99
I99
I99
I99
I99
I97
I92
I87
I82
I78
I74
I70
I66
I62
I58
I55
I52
I48
I45
I42
I40
I38
I37
I36
I35
I34
I32
I32
I35
I38
I40
I44
I47
I51
I55
I59
I63
I68
I73
I79
I85
I91
I99
I99
I99
I99
I99
I99
I99
I99
I99
I99
I99
I99
I99
I99
I99
I99
I99
I99
I99
I99
I99
I100
I100
I100
I100
I99
I100
I100
I100
I100
I100
I100
I100
I100
I100
I100
I100
I99
I100
I100
I99
I99
I99
I99
I99
I99
I99
I99
I99
I99
I99
I99
I99
I99
I99
I99
I99
I99
I99
I99
I99
I99
I99
I99
I99
I99
I99
I99
I99
I99
I80
I86
I92
I99
I99
I99
I99
I99
I99
I99
I99
I99
I99
I99
I99
I99
I99
I99
I99
I99
I99
I99
I99
I99
I99
I99
I99
I99
I99
I99
I99
I99
I99
I99
I99
I99
I99
I99
I99
I99
I99
I99
I99
I99
I99
I99
I99
I100
I100
I100
I100
I99
I99
I99
I99
I99
I99
I99
I99
I99
I99
I99
I99
I99
I99
I99
I99
I99
I99
I99
I99
I99
I99
I99
I99
I99
I99
I99
I99
I99
I99
I99
I99
I99
I99
I99
I99
I99
I99
I99
I99
I99
I97
I92
I87
I82
I78
I74
I70
I67
I63
I59
I56
I53
I50
I46
I43
I41
I38
I36
I35
I33
I33
I31
I30
I32
I35
I37
I40
I43
I46
I50
I54
I58
I62
I67
I72
I77
I84
I90
I96
I99
I99
I99
I99
I99
I99
I99
I99
I99
I99
I99
I99
I99
I99
I99
I99
I99
I99
I99
I99
I100
I100
I100
I100
I100
I100
I99
I100
I100
I100
I100
I100
I100
I99
I99
I99
I100
I100
I99
I99
I99
I99
I99
I99
I99
I99
I99
I99
I99
I99
I99
I99
I99
I99
I99
I99
I99
I99
I99
I99
I99
I99
I99
I99
I99
I99
I99
I99
I99
I83
I89
I95
I99
I99
I99
I99
I99
I99
I99
I99
I99
I99
I99
I99
I99
I99
I99
I99
I99
I99
I99
I99
I99
I99
I99
I99
I99
I99
I99
I99
I99
I99
I99
I99
I99
I99
I99
I99
I99
I99
I99
I99
I99
I99
I99
I100
I100
I100
I100
I100
I99
I99
I99
I99
I99
I99
I99
I99
I99
I99
I99
I99
I99
I99
I99
I99
I99
I99
I99
I99
I99
I99
I99
I99
I99
I99
I99
I99
I99
I99
I99
I99
I99
I99
I99
I99
I99
I99
I99
I99
I96
I91
I87
I82
I78
I74
I70
I67
I63
I60
I57
I53
I50
I47
I45
I42
I39
I37
I35
I32
I31
I30
I29
I29
I32
I34
I37
I40
I43
I46
I49
I53
I57
I61
I66
I71
I76
I82
I88
I94
I99
I99
I99
I99
I99
I99
I99
I99
I99
I99
I99
I99
I99
I99
I99
I99
I99
I99
I99
I99
I99
I99
I100
I100
I100
I100
I100
I100
I100
I100
I100
I99
I100
I100
I99
I99
I100
I99
I99
I99
I99
I99
I99
I99
I99
I99
I99
I99
I99
I99
I99
I99
I99
I99
I99
I99
I99
I99
I99
I99
I99
I99
I99
I99
I99
I99
I99
I99
I99
I86
I92
I99
I99
I99
I99
I99
I99
I99
I99
I99
I99
I99
I99
I99
I99
I99
I99
I99
I99
I99
I99
I99
I99
I99
I99
I99
I99
I99
I99
I99
I99
I99
I99
I99
I99
I99
I99
I99
I99
I100
I100
I100
I99
I100
I99
I100
I100
I100
I100
I99
I99
I99
I99
I99
I99
I99
I99
I99
I99
I99
I99
I99
I99
I99
I99
I99
I99
I99
I99
I99
I99
I99
I99
I99
I99
I99
I99
I99
I99
I99
I99
I99
I99
I99
I99
I99
I99
I99
I99
I94
I90
I86
I82
I78
I74
I70
I67
I63
I60
I57
I54
I51
I48
I45
I43
I40
I38
I35
I33
I31
I29
I28
I28
I29
I31
I33
I36
I39
I42
I45
I48
I52
I56
I60
I64
I69
I74
I80
I86
I92
I99
I99
I99
I99
I99
I99
I99
I99
I99
I99
I99
I99
I99
I99
I99
I99
I99
I99
I99
I99
I99
I99
I99
I99
I100
I100
I100
I100
I99
I99
I100
I100
I100
I100
I99
I100
I100
I99
I99
I100
I99
I99
I99
I99
I99
I99
I99
I99
I99
I99
I99
I99
I99
I99
I99
I99
I99
I99
I99
I99
I99
I99
I99
I99
I99
I99
I99
I99
I99
I88
I94
I99
I99
I99
I99
I99
I99
I99
I99
I99
I99
I99
I99
I99
I99
I99
I99
I99
I99
I99
I99
I99
I99
I99
I99
I99
I99
I99
I99
I99
I99
I99
I99
I99
I99
I99
I99
I99
I99
I99
I100
I100
I100
I100
I100
I100
I100
I100
I99
I99
I99
I99
I99
I99
I99
I99
I99
I99
I99
I99
I99
I99
I99
I99
I99
I99
I99
I99
I99
I99
I99
I99
I99
I99
I99
I99
I99
I99
I99
I99
I99
I99
I99
I99
I99
I99
I99
I95
I92
I89
I85
I81
I77
I74
I70
I67
I63
I60
I57
I54
I51
I48
I46
I43
I41
I38
I36
I34
I32
I30
I28
I26
I26
I28
I31
I33
I35
I38
I41
I44
I47
I51
I55
I58
I63
I67
I72
I77
I83
I89
I95
I99
I99
I99
I99
I99
I99
I99
I99
I99
I99
I99
I99
I99
I99
I99
I99
I99
I99
I99
I99
I99
I99
I99
I99
I100
I100
I100
I100
I100
I100
I99
I99
I100
I100
I100
I99
I99
I99
I100
I100
I99
I99
I99
I99
I99
I99
I99
I99
I99
I99
I99
I99
I99
I99
I99
I99
I99
I99
I99
I99
I99
I99
I99
I99
I99
I99
I99
I99
I90
I96
I99
I99
I99
I99
I99
I99
I99
I99
I99
I99
I99
I99
I99
I99
I99
I99
I99
I99
I99
I99
I99
I99
I99
I99
I99
I99
I99
I99
I99
I99
I99
I99
I99
I99
I99
I99
I99
I99
I99
I99
I100
I100
I100
I100
I100
I100
I99
I99
I99
I99
I99
I99
I99
I99
I99
I99
I99
I99
I99
I99
I99
I99
I99
I99
I99
I99
I99
I99
I99
I99
I99
I99
I99
I99
I99
I99
I99
I99
I99
I99
I99
I99
I99
I99
I95
I92
I89
I86
I83
I80
I77
I73
I70
I67
I63
I60
I57
I54
I51
I48
I46
I43
I41
I39
I36
I35
I33
I31
I29
I27
I25
I26
I28
I30
I32
I35
I37
I40
I43
I46
I50
I53
I57
I61
I66
I70
I75
I80
I86
I92
I99
I99
I99
I99
I99
I99
I99
I99
I99
I99
I99
I99
I99
I99
I99
I99
I99
I99
I99
I99
I99
I99
I99
I99
I99
I99
I99
I99
I99
I99
I99
I99
I100
I100
I100
I99
I99
I99
I99
I99
I99
I99
I99
I99
I99
I99
I99
I99
I99
I99
I99
I99
I99
I99
I99
I99
I99
I99
I99
I99
I99
I99
I99
I99
I99
I99
I99
I99
I91
I99
I99
I99
I99
I99
I99
I99
I99
I99
I99
I99
I99
I99
I99
I99
I99
I99
I99
I99
I99
I99
I99
I99
I99
I99
I99
I99
I99
I99
I99
I99
I99
I99
I99
I99
I99
I99
I99
I99
I99
I99
I99
I99
I100
I100
I99
I99
I99
I99
I99
I99
I99
I99
I99
I99
I99
I99
I99
I99
I99
I99
I99
I99
I99
I99
I99
I99
I99
I99
I99
I99
I99
I99
I99
I99
I99
I99
I99
I99
I99
I99
I99
I99
I95
I92
I89
I86
I83
I80
I78
I75
I72
I69
I66
I63
I60
I57
I54
I51
I48
I46
I44
I41
I39
I37
I35
I33
I31
I29
I28
I26
I24
I26
I28
I29
I31
I34
I36
I39
I42
I45
I48
I52
I55
I60
I63
I68
I73
I78
I83
I89
I94
I99
I99
I99
I99
I99
I99
I99
I99
I99
I99
I99
I99
I99
I99
I99
I99
I99
I99
I99
I99
I99
I99
I99
I99
I99
I99
I99
I99
I99
I99
I99
I100
I100
I100
I99
I99
I99
I99
I99
I99
I99
I99
I99
I99
I99
I99
I99
I99
I99
I99
I99
I99
I99
I99
I99
I99
I99
I99
I99
I99
I99
I99
I99
I99
I99
I99
I99
I93
I99
I99
I99
I99
I99
I99
I99
I99
I99
I99
I99
I99
I99
I99
I99
I99
I99
I99
I99
I99
I99
I99
I99
I99
I99
I99
I99
I99
I99
I99
I99
I99
I99
I99
I99
I99
I99
I99
I99
I99
I99
I99
I99
I99
I99
I99
I99
I99
I99
I99
I99
I99
I99
I99
I99
I99
I99
I99
I99
I99
I99
I99
I99
I99
I99
I99
I99
I99
I99
I99
I99
I99
I99
I99
I99
I99
I99
I99
I99
I99
I96
I94
I92
I89
I86
I83
I80
I78
I75
I73
I70
I67
I65
I62
I59
I57
I54
I51
I48
I46
I44
I41
I39
I37
I35
I33
I31
I29
I28
I26
I25
I23
I25
I27
I29
I31
I33
I36
I38
I41
I44
I47
I50
I54
I58
I62
I66
I70
I75
I80
I85
I90
I96
I99
I99
I99
I99
I99
I99
I99
I99
I99
I99
I99
I99
I99
I99
I99
I99
I99
I99
I99
I99
I99
I99
I99
I99
I99
I99
I99
I99
I99
I99
I100
I100
I100
I99
I99
I99
I100
I99
I99
I99
I99
I99
I99
I99
I99
I99
I99
I99
I99
I99
I99
I99
I99
I99
I99
I99
I99
I99
I99
I99
I99
I99
I99
I99
I99
I99
I94
I99
I99
I99
I99
I99
I99
I99
I99
I99
I99
I99
I99
I99
I99
I99
I99
I99
I99
I99
I99
I99
I99
I99
I99
I99
I99
I99
I99
I99
I99
I99
I99
I99
I99
I99
I99
I99
I99
I99
I99
I99
I99
I99
I99
I99
I99
I99
I99
I99
I99
I99
I99
I99
I99
I99
I99
I99
I99
I99
I99
I99
I99
I99
I99
I99
I99
I99
I97
I94
I94
I94
I94
I94
I94
I94
I94
I94
I94
I93
I91
I90
I88
I86
I83
I80
I78
I75
I73
I70
I68
I66
I63
I61
I58
I56
I53
I51
I48
I46
I44
I41
I39
I37
I35
I33
I32
I30
I28
I27
I25
I24
I23
I24
I26
I28
I30
I32
I35
I37
I40
I43
I45
I49
I52
I56
I59
I63
I67
I72
I77
I81
I86
I91
I97
I99
I99
I99
I99
I99
I99
I99
I99
I99
I99
I99
I99
I99
I99
I99
I99
I99
I99
I99
I99
I99
I99
I100
I100
I99
I99
I99
I99
I99
I100
I100
I100
I100
I100
I100
I99
I99
I99
I99
I99
I99
I99
I99
I99
I99
I99
I99
I99
I99
I99
I99
I99
I99
I99
I99
I99
I99
I99
I99
I99
I99
I99
I99
I99
I99
I94
I99
I99
I99
I99
I99
I99
I99
I99
I99
I99
I99
I99
I99
I99
I99
I99
I99
I99
I99
I99
I99
I99
I99
I99
I99
I99
I99
I99
I99
I99
I99
I99
I99
I99
I99
I99
I99
I99
I99
I99
I99
I99
I99
I99
I99
I99
I99
I99
I99
I99
I99
I99
I99
I99
I99
I99
I99
I99
I99
I99
I99
I99
I99
I99
I99
I99
I97
I92
I87
I87
I87
I87
I87
I87
I87
I87
I87
I87
I86
I85
I84
I82
I80
I77
I75
I73
I70
I68
I66
I63
I62
I59
I57
I55
I53
I50
I48
I46
I43
I41
I39
I37
I35
I33
I32
I30
I28
I27
I25
I24
I23
I22
I24
I25
I27
I29
I31
I33
I36
I38
I41
I44
I47
I50
I53
I57
I61
I65
I69
I73
I77
I82
I87
I92
I97
I99
I99
I99
I99
I99
I99
I99
I99
I99
I99
I99
I99
I99
I99
I99
I99
I99
I99
I99
I99
I99
I99
I99
I99
I99
I99
I99
I99
I99
I100
I100
I100
I100
I100
I99
I99
I99
I99
I99
I99
I99
I99
I99
I99
I99
I99
I99
I99
I99
I99
I99
I99
I99
I99
I99
I99
I99
I99
I99
I99
I99
I99
I99
I99
I94
I99
I99
I99
I99
I99
I99
I99
I99
I99
I99
I99
I99
I99
I99
I99
I99
I99
I100
I99
I99
I99
I99
I99
I99
I99
I99
I99
I99
I99
I99
I99
I99
I99
I99
I99
I99
I99
I99
I99
I99
I99
I99
I99
I99
I99
I99
I99
I99
I99
I99
I99
I99
I99
I99
I99
I99
I99
I99
I99
I99
I99
I99
I99
I99
I99
I97
I92
I87
I82
I81
I81
I81
I81
I81
I81
I81
I81
I80
I80
I79
I77
I76
I74
I72
I70
I68
I66
I63
I62
I60
I58
I56
I53
I52
I50
I47
I45
I43
I41
I39
I37
I35
I33
I32
I30
I28
I27
I26
I24
I23
I22
I21
I23
I25
I26
I28
I30
I33
I35
I37
I40
I42
I45
I48
I52
I55
I58
I62
I66
I70
I74
I78
I82
I87
I92
I99
I99
I99
I99
I99
I99
I99
I99
I99
I99
I99
I99
I99
I99
I99
I99
I99
I99
I99
I99
I99
I99
I99
I99
I99
I99
I99
I99
I99
I99
I100
I100
I100
I100
I99
I99
I99
I99
I99
I99
I99
I99
I99
I99
I99
I99
I99
I99
I99
I99
I99
I99
I99
I99
I99
I99
I99
I99
I99
I99
I99
I99
I99
I99
I99
I99
I99
I99
I99
I99
I99
I99
I99
I99
I99
I99
I99
I99
I99
I99
I99
I99
I100
I99
I99
I99
I99
I99
I99
I99
I99
I99
I99
I99
I99
I99
I99
I99
I99
I99
I99
I99
I99
I99
I99
I99
I99
I99
I99
I99
I99
I99
I99
I99
I99
I99
I99
I99
I99
I99
I99
I99
I99
I99
I99
I99
I99
I99
I99
I99
I92
I87
I82
I78
I75
I75
I75
I75
I75
I75
I75
I75
I75
I74
I73
I72
I71
I69
I67
I66
I63
I62
I60
I58
I56
I54
I52
I50
I48
I46
I45
I43
I41
I39
I37
I35
I33
I32
I30
I28
I27
I26
I24
I23
I22
I21
I21
I23
I24
I26
I28
I29
I31
I34
I36
I38
I41
I43
I46
I50
I53
I56
I59
I63
I67
I70
I74
I78
I83
I89
I94
I99
I99
I99
I99
I99
I99
I99
I99
I99
I99
I99
I99
I99
I99
I99
I99
I99
I99
I99
I99
I99
I99
I99
I99
I99
I99
I99
I99
I99
I99
I99
I99
I99
I99
I99
I99
I99
I99
I99
I99
I99
I99
I99
I99
I99
I99
I99
I99
I99
I99
I99
I99
I99
I99
I99
I99
I99
I99
I99
I100
I100
I99
I99
I99
I99
I99
I99
I99
I99
I99
I99
I99
I99
I99
I99
I99
I99
I99
I99
I99
I99
I99
I99
I99
I100
I100
I99
I99
I99
I99
I99
I99
I99
I99
I99
I99
I99
I99
I99
I99
I99
I99
I99
I99
I99
I99
I99
I99
I99
I99
I99
I99
I99
I99
I99
I99
I99
I99
I99
I99
I99
I99
I99
I99
I99
I99
I99
I99
I94
I89
I83
I78
I74
I70
I70
I70
I70
I70
I70
I70
I70
I69
I69
I68
I67
I66
I64
I63
I61
I60
I58
I56
I54
I52
I50
I49
I47
I45
I43
I42
I40
I38
I36
I35
I33
I32
I30
I28
I27
I26
I24
I23
I22
I21
I19
I20
I22
I23
I25
I26
I28
I30
I32
I35
I37
I39
I42
I45
I47
I50
I53
I57
I60
I63
I67
I70
I75
I80
I85
I90
I96
I99
I99
I99
I99
I99
I99
I99
I99
I99
I99
I99
I99
I99
I99
I99
I99
I99
I99
I99
I99
I99
I99
I99
I99
I99
I99
I99
I99
I99
I99
I99
I99
I99
I99
I99
I99
I99
I99
I99
I99
I99
I99
I99
I99
I99
I99
I99
I99
I99
I99
I99
I99
I99
I99
I99
I99
I99
I100
I100
I99
I99
I99
I99
I99
I99
I99
I99
I99
I99
I99
I99
I99
I99
I99
I99
I99
I99
I99
I99
I99
I99
I99
I99
I99
I99
I99
I99
I99
I99
I99
I99
I99
I99
I99
I99
I99
I99
I99
I99
I99
I99
I99
I99
I99
I99
I99
I99
I99
I99
I99
I99
I99
I99
I99
I99
I99
I99
I99
I99
I99
I99
I99
I99
I99
I99
I99
I99
I96
I90
I84
I77
I72
I67
I65
I65
I65
I65
I65
I65
I65
I64
I64
I63
I62
I61
I60
I58
I57
I55
I54
I52
I50
I49
I47
I45
I44
I42
I41
I39
I38
I36
I35
I33
I31
I30
I28
I27
I26
I24
I23
I22
I21
I20
I19
I19
I21
I23
I24
I26
I28
I29
I31
I33
I35
I38
I40
I43
I45
I48
I51
I54
I57
I60
I63
I67
I72
I77
I81
I86
I91
I97
I99
I99
I99
I99
I99
I99
I99
I99
I99
I99
I99
I99
I99
I99
I99
I99
I99
I99
I99
I99
I99
I99
I99
I99
I99
I99
I99
I99
I99
I99
I99
I99
I99
I99
I99
I99
I99
I99
I99
I99
I99
I99
I99
I99
I99
I99
I99
I99
I99
I99
I99
I99
I99
I99
I99
I100
I100
I100
I99
I99
I99
I99
I99
I99
I99
I99
I99
I99
I99
I99
I99
I99
I99
I99
I99
I99
I99
I99
I99
I99
I99
I99
I99
I99
I99
I99
I99
I99
I99
I99
I99
I99
I99
I99
I99
I99
I99
I99
I99
I99
I99
I99
I99
I99
I99
I99
I99
I99
I99
I99
I99
I99
I99
I99
I99
I99
I99
I99
I99
I99
I99
I99
I99
I99
I99
I99
I99
I91
I85
I79
I73
I68
I63
I60
I60
I60
I60
I60
I60
I60
I59
I59
I58
I57
I56
I55
I53
I52
I50
I49
I47
I45
I44
I43
I41
I40
I38
I37
I35
I34
I33
I31
I29
I28
I27
I26
I24
I23
I22
I21
I20
I19
I18
I19
I20
I22
I23
I25
I26
I28
I30
I32
I34
I36
I38
I41
I43
I46
I48
I51
I54
I57
I61
I65
I69
I73
I77
I82
I87
I92
I97
I99
I99
I99
I99
I99
I99
I99
I99
I99
I99
I99
I99
I99
I99
I99
I99
I99
I99
I99
I99
I99
I99
I99
I99
I99
I99
I99
I99
I99
I99
I99
I99
I99
I99
I99
I99
I99
I99
I99
I99
I99
I99
I99
I99
I99
I99
I99
I99
I99
I99
I99
I99
I99
I99
I100
I100
I99
I99
I99
I99
I99
I99
I99
I99
I99
I99
I99
I99
I99
I99
I99
I99
I99
I99
I99
I99
I99
I99
I99
I99
I99
I99
I99
I99
I99
I99
I99
I99
I99
I99
I99
I99
I99
I99
I99
I99
I99
I99
I99
I99
I99
I99
I99
I99
I99
I99
I99
I99
I99
I99
I99
I99
I99
I99
I99
I99
I99
I99
I99
I99
I99
I99
I99
I99
I99
I99
I93
I86
I80
I74
I69
I64
I59
I56
I56
I56
I56
I56
I55
I55
I55
I54
I53
I52
I51
I50
I48
I47
I45
I44
I43
I41
I40
I38
I37
I36
I35
I33
I32
I31
I29
I28
I27
I25
I24
I23
I22
I21
I20
I19
I18
I17
I18
I19
I21
I22
I24
I25
I27
I29
I31
I33
I35
I36
I39
I41
I43
I46
I48
I52
I55
I58
I62
I66
I70
I74
I78
I82
I87
I91
I96
I99
I99
I99
I99
I99
I99
I99
I99
I99
I99
I99
I99
I99
I99
I99
I99
I99
I99
I99
I99
I99
I99
I99
I99
I99
I99
I99
I99
I99
I99
I99
I99
I99
I99
I99
I99
I99
I99
I99
I99
I99
I99
I99
I99
I99
I99
I99
I99
I99
I99
I99
I99
I99
I100
I100
I99
I99
I99
I99
I99
I99
I99
I99
I99
I99
I99
I99
I99
I99
I99
I99
I99
I99
I99
I99
I99
I100
I100
I99
I99
I99
I99
I99
I99
I99
I99
I99
I99
I99
I99
I99
I99
I99
I99
I99
I99
I99
I99
I99
I99
I99
I99
I99
I99
I99
I99
I99
I99
I99
I99
I99
I99
I99
I99
I99
I99
I99
I99
I99
I99
I99
I99
I99
I99
I99
I94
I87
I80
I75
I69
I64
I60
I55
I52
I52
I52
I52
I52
I51
I51
I50
I49
I48
I47
I46
I45
I44
I43
I41
I40
I38
I37
I36
I35
I34
I32
I31
I30
I29
I28
I26
I25
I24
I23
I22
I21
I20
I19
I18
I17
I16
I18
I19
I20
I21
I23
I24
I26
I28
I29
I31
I33
I35
I37
I39
I41
I44
I46
I50
I53
I56
I59
I63
I67
I70
I74
I78
I82
I86
I90
I95
I99
I99
I99
I99
I99
I99
I99
I99
I99
I99
I99
I99
I99
I99
I99
I99
I99
I99
I99
I99
I99
I99
I99
I99
I99
I99
I99
I99
I99
I99
I99
I99
I99
I99
I99
I99
I99
I99
I99
I99
I99
I99
I99
I99
I99
I99
I99
I99
I99
I99
I99
I100
I100
I99
I99
I99
I99
I99
I99
I99
I99
I99
I99
I99
I99
I99
I99
I99
I99
I99
I99
I99
I99
I99
I99
I99
I100
I100
I100
I99
I99
I99
I99
I99
I99
I99
I99
I99
I99
I99
I99
I99
I99
I99
I99
I99
I99
I99
I99
I99
I99
I99
I99
I100
I100
I100
I99
I99
I99
I99
I99
I99
I99
I99
I99
I99
I99
I99
I99
I99
I99
I99
I99
I99
I94
I87
I81
I75
I70
I65
I60
I56
I52
I48
I48
I48
I48
I47
I47
I46
I46
I45
I44
I43
I42
I41
I40
I38
I37
I36
I35
I34
I33
I31
I30
I29
I28
I27
I26
I25
I24
I23
I22
I21
I19
I19
I18
I17
I16
I16
I17
I18
I19
I21
I22
I23
I25
I26
I28
I29
I31
I33
I35
I37
I39
I42
I45
I47
I50
I53
I57
I60
I63
I67
I70
I74
I77
I81
I86
I92
I99
I99
I99
I99
I99
I99
I99
I99
I99
I99
I99
I99
I99
I99
I99
I99
I99
I99
I99
I99
I99
I99
I99
I99
I99
I99
I99
I99
I99
I99
I99
I99
I99
I99
I99
I99
I99
I99
I99
I99
I99
I99
I99
I99
I99
I99
I99
I100
I99
I100
I100
I100
I100
I99
I99
I99
I99
I99
I99
I99
I99
I99
I99
I99
I99
I99
I99
I99
I99
I99
I99
I99
I99
I99
I99
I100
I100
I100
I100
I99
I99
I99
I99
I99
I99
I99
I99
I99
I99
I99
I99
I99
I99
I99
I99
I99
I99
I99
I99
I99
I99
I99
I99
I100
I100
I100
I100
I99
I99
I99
I99
I99
I99
I99
I99
I99
I99
I99
I99
I99
I99
I99
I99
I99
I94
I87
I81
I75
I70
I65
I60
I56
I52
I48
I45
I45
I44
I44
I44
I43
I43
I42
I41
I40
I39
I38
I37
I36
I35
I34
I33
I31
I30
I29
I28
I28
I26
I25
I24
I23
I22
I21
I20
I19
I19
I18
I17
I16
I15
I15
I16
I18
I19
I20
I21
I22
I24
I25
I27
I28
I30
I32
I33
I35
I38
I40
I43
I45
I48
I51
I54
I57
I60
I63
I67
I70
I73
I78
I83
I89
I94
I99
I99
I99
I99
I99
I99
I99
I99
I99
I99
I99
I99
I99
I99
I99
I99
I99
I99
I99
I99
I99
I99
I99
I99
I99
I99
I99
I99
I99
I99
I99
I99
I99
I99
I99
I99
I99
I99
I99
I99
I99
I99
I99
I99
I99
I99
I100
I100
I100
I100
I100
I99
I99
I99
I99
I99
I99
I99
I99
I99
I99
I99
I99
I99
I99
I99
I99
I99
I99
I99
I99
I99
I99
I99
I100
I100
I100
I100
I99
I99
I99
I99
I99
I99
I99
I99
I99
I99
I99
I99
I99
I99
I99
I99
I99
I99
I99
I99
I99
I99
I99
I99
I100
I100
I100
I100
I99
I99
I99
I99
I99
I99
I99
I99
I99
I99
I99
I99
I99
I99
I99
I99
I99
I94
I87
I81
I75
I70
I65
I60
I56
I52
I48
I45
I41
I41
I41
I40
I40
I40
I39
I38
I37
I36
I36
I35
I33
I33
I31
I30
I29
I28
I28
I26
I26
I25
I24
I23
I22
I21
I20
I19
I18
I18
I17
I16
I15
I14
I15
I16
I17
I18
I19
I20
I21
I23
I24
I25
I27
I28
I30
I32
I34
I36
I38
I41
I43
I46
I48
I51
I54
I57
I60
I63
I66
I70
I75
I80
I85
I90
I96
I99
I99
I99
I99
I99
I99
I99
I99
I99
I99
I99
I99
I99
I99
I99
I99
I99
I99
I99
I99
I99
I99
I99
I99
I99
I99
I99
I99
I99
I99
I99
I99
I99
I99
I99
I99
I99
I99
I99
I99
I99
I99
I99
I99
I99
I100
I100
I100
I100
I99
I99
I99
I99
I99
I99
I99
I99
I99
I99
I99
I99
I99
I99
I99
I99
I99
I99
I99
I99
I99
I99
I99
I99
I99
I100
I100
I100
I100
I99
I99
I99
I99
I99
I99
I99
I99
I99
I99
I99
I99
I99
I99
I99
I99
I99
I99
I99
I99
I99
I99
I99
I99
I99
I99
I99
I99
I99
I99
I99
I99
I99
I99
I99
I99
I99
I99
I99
I99
I99
I99
I99
I99
I94
I87
I81
I75
I70
I65
I60
I56
I52
I48
I45
I41
I38
I38
I38
I37
I37
I36
I35
I35
I34
I33
I32
I31
I30
I29
I28
I28
I26
I26
I25
I24
I23
I22
I21
I21
I20
I19
I18
I17
I16
I16
I15
I14
I14
I14
I15
I16
I17
I18
I19
I20
I22
I23
I24
I26
I27
I29
I31
I33
I35
I36
I39
I41
I43
I46
I48
I51
I54
I57
I59
I63
I67
I72
I77
I81
I86
I91
I97
I99
I99
I99
I99
I99
I99
I99
I99
I99
I99
I99
I99
I99
I99
I99
I99
I99
I99
I99
I99
I99
I99
I99
I99
I99
I99
I99
I99
I99
I99
I99
I99
I99
I99
I99
I99
I99
I99
I99
I99
I99
I99
I99
I99
I100
I100
I100
I99
I99
I99
I99
I99
I99
I99
I99
I99
I99
I99
I99
I99
I99
I99
I99
I99
I99
I99
I99
I99
I99
I99
I99
I99
I99
I99
I100
I99
I100
I100
I100
I100
I99
I99
I99
I99
I99
I99
I99
I99
I99
I99
I99
I99
I99
I99
I99
I99
I99
I99
I99
I99
I99
I99
I99
I99
I99
I99
I99
I99
I99
I99
I99
I99
I99
I99
I99
I99
I99
I99
I99
I99
I99
I94
I87
I80
I75
I69
I64
I60
I55
I52
I48
I44
I41
I38
I35
I35
I35
I34
I33
I33
I32
I31
I31
I30
I29
I28
I28
I26
I26
I25
I24
I23
I23
I22
I21
I20
I19
I19
I18
I17
I16
I16
I15
I14
I13
I13
I14
I14
I15
I16
I17
I18
I19
I21
I22
I23
I24
I26
I28
I29
I31
I33
I35
I37
I39
I41
I44
I46
I48
I51
I53
I57
I61
I65
I69
I73
I77
I82
I87
I92
I97
I99
I99
I99
I99
I99
I99
I99
I99
I99
I99
I99
I99
I99
I99
I99
I99
I99
I99
I99
I99
I99
I99
I99
I99
I99
I99
I99
I99
I99
I99
I99
I99
I99
I99
I99
I99
I99
I99
I99
I99
I99
I99
I100
I100
I100
I100
I99
I99
I99
I99
I99
I99
I99
I99
I99
I99
I99
I99
I99
I99
I99
I99
I99
I99
I99
I99
I99
I99
I99
I99
I99
I99
I99
I99
I99
I99
I99
I100
I99
I99
I99
I99
I99
I99
I99
I99
I99
I99
I99
I99
I99
I99
I99
I99
I99
I99
I99
I99
I99
I99
I99
I99
I99
I99
I99
I99
I99
I99
I99
I99
I99
I99
I99
I99
I99
I99
I99
I99
I99
I99
I93
I86
I80
I74
I69
I64
I59
I55
I51
I47
I44
I41
I38
I35
I33
I32
I32
I31
I31
I30
I29
I29
I28
I27
I26
I26
I25
I24
I23
I23
I22
I21
I20
I19
I19
I18
I18
I17
I16
I15
I15
I14
I13
I13
I12
I13
I14
I15
I16
I16
I18
I19
I19
I21
I22
I23
I25
I26
I28
I29
I31
I33
I35
I37
I39
I41
I43
I46
I48
I52
I55
I58
I62
I66
I70
I74
I78
I82
I87
I91
I96
I99
I99
I99
I99
I99
I99
I99
I99
I99
I99
I99
I99
I99
I99
I99
I99
I99
I99
I99
I99
I99
I99
I99
I99
I99
I99
I99
I99
I99
I99
I99
I99
I99
I99
I99
I99
I99
I99
I99
I99
I99
I100
I100
I100
I99
I99
I99
I99
I99
I99
I99
I99
I99
I99
I99
I99
I99
I99
I99
I99
I99
I99
I99
I99
I99
I99
I99
I99
I99
I99
I99
I99
I99
I99
I99
I99
I99
I100
I99
I99
I99
I100
I99
I100
I99
I99
I99
I99
I99
I99
I99
I99
I99
I99
I99
I99
I99
I99
I99
I100
I99
I99
I99
I99
I99
I99
I99
I99
I99
I99
I99
I99
I99
I99
I99
I99
I99
I99
I99
I91
I85
I79
I73
I68
I63
I59
I55
I51
I47
I44
I40
I38
I35
I32
I30
I29
I29
I28
I28
I28
I27
I26
I25
I25
I24
I23
I23
I22
I21
I20
I19
I19
I18
I18
I17
I16
I16
I15
I14
I14
I13
I12
I12
I12
I12
I13
I14
I15
I16
I17
I18
I19
I20
I21
I22
I24
I25
I27
I28
I30
I32
I33
I35
I37
I39
I41
I43
I46
I50
I53
I56
I59
I63
I67
I70
I74
I78
I82
I86
I90
I94
I99
I99
I99
I99
I99
I99
I99
I99
I99
I99
I99
I99
I99
I99
I99
I99
I99
I99
I99
I99
I99
I99
I99
I99
I99
I99
I99
I99
I99
I99
I99
I99
I99
I99
I99
I99
I99
I99
I99
I100
I100
I100
I99
I99
I99
I99
I99
I99
I99
I99
I99
I99
I99
I99
I99
I99
I99
I99
I99
I99
I99
I99
I99
I99
I99
I99
I99
I99
I99
I99
I99
I99
I99
I99
I99
I99
I99
I99
I100
I99
I100
I100
I99
I99
I100
I100
I99
I99
I99
I99
I99
I99
I99
I99
I99
I99
I99
I99
I99
I99
I99
I99
I99
I99
I99
I99
I99
I99
I99
I99
I99
I99
I99
I99
I99
I99
I99
I96
I90
I84
I77
I72
I67
I62
I58
I54
I50
I46
I43
I40
I37
I35
I32
I30
I28
I27
I26
I26
I26
I25
I24
I24
I23
I23
I22
I21
I20
I19
I19
I18
I18
I17
I16
I16
I15
I15
I14
I14
I13
I12
I12
I11
I11
I12
I12
I13
I14
I15
I16
I17
I18
I19
I20
I21
I23
I24
I25
I27
I28
I30
I32
I33
I35
I37
I39
I42
I45
I47
I50
I53
I57
I60
I63
I67
I70
I74
I77
I81
I85
I89
I92
I95
I99
I99
I99
I99
I99
I99
I99
I99
I99
I99
I99
I99
I99
I99
I99
I99
I99
I99
I99
I99
I99
I99
I99
I99
I99
I99
I99
I99
I99
I99
I99
I99
I99
I99
I99
I99
I99
I100
I100
I100
I99
I99
I99
I99
I99
I99
I99
I99
I99
I99
I99
I99
I99
I99
I99
I99
I99
I99
I99
I99
I99
I99
I99
I99
I99
I99
I99
I99
I99
I99
I99
I99
I99
I99
I99
I99
I99
I99
I100
I100
I100
I100
I100
I100
I100
I99
I99
I99
I99
I99
I99
I99
I99
I99
I99
I99
I99
I99
I99
I99
I99
I99
I99
I99
I99
I99
I99
I99
I99
I99
I99
I99
I99
I99
I99
I94
I88
I82
I76
I71
I66
I61
I57
I53
I49
I46
I43
I40
I37
I34
I32
I29
I27
I25
I24
I24
I24
I23
I23
I22
I21
I21
I20
I19
I19
I18
I18
I17
I17
I16
I16
I15
I14
I14
I13
I13
I12
I12
I11
I11
I11
I11
I12
I13
I13
I14
I15
I16
I17
I18
I19
I20
I22
I23
I24
I26
I27
I28
I30
I32
I33
I35
I38
I40
I43
I45
I48
I51
I54
I57
I60
I63
I67
I70
I73
I77
I80
I83
I86
I89
I92
I94
I96
I99
I99
I99
I99
I99
I99
I99
I99
I99
I99
I99
I99
I99
I99
I99
I99
I99
I99
I99
I99
I99
I99
I99
I99
I99
I99
I99
I99
I99
I99
I99
I99
I99
I99
I99
I100
I100
I100
I99
I99
I99
I99
I99
I99
I99
I99
I99
I99
I99
I99
I99
I99
I99
I99
I99
I99
I100
I99
I99
I99
I99
I99
I99
I99
I99
I99
I99
I99
I99
I99
I99
I99
I99
I99
I99
I99
I100
I100
I100
I100
I100
I100
I100
I100
I99
I99
I99
I99
I99
I99
I99
I99
I99
I99
I99
I99
I99
I99
I99
I99
I99
I99
I99
I99
I99
I99
I99
I99
I99
I99
I99
I99
I92
I86
I80
I74
I69
I64
I60
I56
I52
I48
I45
I42
I39
I36
I33
I31
I29
I27
I25
I23
I23
I22
I22
I21
I21
I20
I19
I19
I18
I18
I17
I17
I16
I16
I15
I14
I14
I14
I13
I12
I12
I11
I11
I11
I10
I10
I11
I11
I12
I13
I14
I14
I15
I16
I17
I18
I19
I21
I22
I23
I24
I26
I27
I28
I30
I32
I34
I36
I38
I41
I43
I46
I48
I51
I54
I57
I60
I63
I66
I69
I72
I75
I78
I80
I83
I86
I88
I90
I91
I93
I94
I94
I94
I95
I99
I99
I99
I99
I99
I99
I99
I99
I99
I99
I99
I99
I99
I99
I99
I99
I99
I99
I99
I99
I99
I99
I99
I99
I99
I99
I99
I99
I99
I99
I100
I100
I100
I100
I99
I99
I99
I99
I99
I99
I99
I99
I99
I99
I99
I99
I99
I99
I99
I99
I100
I99
I100
I99
I99
I99
I99
I99
I99
I99
I99
I99
I99
I99
I99
I99
I99
I99
I99
I99
I100
I100
I100
I100
I99
I99
I99
I100
I99
I99
I99
I99
I99
I99
I99
I99
I99
I99
I99
I99
I99
I99
I99
I99
I99
I99
I99
I99
I99
I99
I99
I99
I99
I99
I99
I95
I89
I83
I77
I72
I67
I63
I58
I55
I51
I47
I44
I41
I38
I35
I33
I31
I28
I26
I24
I23
I21
I21
I20
I20
I19
I19
I18
I18
I17
I17
I16
I16
I15
I14
I14
I14
I13
I12
I12
I12
I11
I11
I10
I10
I9
I10
I10
I11
I11
I12
I13
I14
I15
I16
I16
I18
I19
I19
I21
I22
I23
I24
I26
I27
I29
I31
I33
I35
I36
I39
I41
I43
I46
I48
I51
I54
I57
I59
I62
I65
I67
I70
I73
I75
I77
I80
I82
I84
I85
I86
I87
I87
I87
I89
I92
I94
I96
I99
I99
I99
I99
I99
I99
I99
I99
I99
I99
I99
I99
I99
I99
I99
I99
I99
I99
I99
I99
I99
I99
I99
I99
I99
I99
I99
I99
I100
I100
I100
I100
I99
I99
I99
I99
I99
I99
I99
I99
I99
I99
I99
I99
I99
I99
I99
I99
I99
I99
I100
I100
I100
I99
I99
I99
I99
I99
I99
I99
I99
I99
I99
I99
I99
I99
I99
I100
I100
I100
I100
I99
I99
I99
I99
I99
I99
I99
I99
I99
I99
I99
I99
I99
I99
I99
I99
I99
I99
I99
I99
I99
I99
I99
I99
I99
I99
I99
I99
I99
I99
I99
I92
I86
I80
I75
I70
I66
I61
I57
I53
I50
I46
I43
I40
I37
I35
I32
I30
I28
I26
I24
I23
I21
I19
I19
I18
I18
I18
I17
I16
I16
I16
I15
I14
I14
I14
I13
I12
I12
I12
I11
I11
I11
I10
I10
I9
I9
I9
I10
I10
I11
I12
I12
I13
I14
I15
I16
I17
I18
I19
I20
I21
I22
I23
I24
I26
I28
I29
I31
I33
I35
I37
I39
I41
I44
I46
I48
I51
I53
I56
I58
I61
I63
I66
I68
I70
I72
I74
I76
I77
I79
I80
I80
I81
I81
I83
I86
I88
I90
I91
I93
I94
I94
I94
I94
I94
I94
I99
I99
I99
I99
I99
I99
I99
I99
I99
I99
I99
I99
I99
I99
I99
I99
I99
I99
I99
I99
I99
I99
I100
I100
I100
I99
I99
I99
I99
I99
I99
I99
I99
I99
I99
I99
I99
I99
I99
I99
I99
I99
I99
I99
I100
I100
I99
I99
I99
I99
I99
I99
I99
I99
I99
I99
I99
I99
I99
I99
I100
I100
I100
I99
I99
I99
I99
I99
I99
I99
I99
I99
I99
I99
I99
I99
I99
I99
I99
I99
I99
I99
I99
I99
I99
I99
I99
I99
I99
I99
I99
I99
I99
I94
I89
I83
I78
I73
I68
I63
I60
I55
I52
I48
I45
I42
I39
I36
I34
I31
I29
I28
I26
I24
I22
I21
I19
I18
I17
I17
I16
I16
I15
I15
I14
I14
I14
I13
I12
I12
I12
I11
I11
I11
I10
I10
I9
I9
I9
I8
I9
I9
I10
I11
I11
I12
I12
I13
I14
I15
I16
I17
I18
I19
I20
I21
I22
I23
I25
I26
I28
I29
I31
I33
I35
I37
I39
I41
I43
I46
I48
I50
I53
I55
I57
I59
I62
I63
I66
I67
I69
I71
I72
I73
I74
I75
I75
I75
I77
I80
I82
I84
I85
I86
I87
I87
I87
I87
I87
I90
I96
I99
I99
I99
I99
I99
I99
I99
I99
I99
I99
I99
I99
I99
I99
I99
I99
I99
I99
I99
I99
I99
I99
I100
I100
I100
I99
I99
I99
I99
I99
I99
I99
I99
I99
I99
I99
I99
I99
I100
I100
I99
I99
I99
I99
I100
I100
I100
I100
I99
I99
I99
I99
I99
I99
I99
I99
I99
I99
I100
I100
I100
I99
I99
I99
I99
I99
I99
I99
I99
I99
I99
I99
I99
I99
I99
I99
I99
I99
I99
I99
I99
I99
I99
I99
I99
I99
I99
I99
I99
I99
I99
I99
I92
I86
I80
I75
I70
I66
I62
I58
I54
I50
I47
I44
I41
I38
I36
I33
I31
I29
I27
I25
I23
I22
I20
I19
I18
I16
I16
I15
I15
I14
I14
I14
I13
I12
I12
I12
I11
I11
I11
I10
I10
I10
I9
I9
I9
I8
I8
I8
I9
I9
I10
I11
I11
I12
I13
I13
I14
I15
I16
I17
I18
I19
I20
I21
I22
I24
I25
I27
I28
I30
I32
I33
I35
I37
I39
I41
I43
I45
I47
I50
I52
I53
I56
I58
I60
I61
I63
I64
I66
I67
I68
I69
I69
I70
I70
I72
I74
I76
I77
I79
I80
I80
I81
I81
I81
I82
I88
I94
I99
I99
I99
I99
I99
I99
I99
I99
I99
I99
I99
I99
I99
I99
I99
I99
I99
I99
I99
I99
I99
I99
I99
I100
I100
I100
I100
I99
I99
I99
I99
I99
I99
I99
I99
I99
I99
I99
I99
I99
I99
I99
I99
I99
I99
I99
I100
I99
I100
I99
I99
I99
I99
I99
I99
I99
I99
I100
I100
I100
I100
I99
I99
I99
I99
I99
I99
I99
I99
I99
I99
I99
I99
I99
I99
I99
I99
I99
I99
I99
I99
I99
I99
I99
I99
I99
I99
I99
I99
I99
I99
I95
I89
I83
I77
I72
I67
I63
I59
I56
I52
I49
I45
I43
I40
I37
I35
I32
I30
I28
I26
I24
I23
I21
I20
I18
I17
I16
I15
I14
I14
I13
I13
I12
I12
I12
I11
I11
I11
I10
I10
I10
I9
I9
I9
I8
I8
I8
I7
I8
I9
I9
I9
I10
I11
I11
I12
I13
I14
I14
I15
I16
I17
I18
I19
I20
I21
I23
I24
I25
I27
I28
I30
I32
I33
I35
I37
I39
I41
I43
I45
I46
I48
I50
I52
I54
I55
I57
I58
I60
I61
I62
I63
I64
I64
I65
I66
I67
I69
I71
I72
I73
I74
I75
I75
I75
I75
I80
I86
I92
I99
I99
I99
I99
I99
I99
I99
I99
I99
I99
I99
I99
I99
I99
I99
I99
I99
I99
I99
I99
I99
I99
I99
I99
I99
I100
I100
I100
I100
I99
I99
I99
I99
I99
I99
I99
I99
I99
I99
I100
I99
I99
I99
I99
I99
I99
I99
I99
I99
I99
I99
I99
I99
I99
I100
I100
I100
I100
I100
I100
I99
I99
I99
I99
I99
I99
I99
I99
I99
I99
I99
I99
I99
I99
I99
I99
I99
I99
I99
I99
I99
I99
I99
I99
I99
I99
I99
I99
I99
I99
I99
I92
I86
I80
I75
I70
I66
I61
I57
I53
I50
I47
I44
I41
I38
I36
I33
I31
I29
I27
I25
I24
I22
I21
I19
I18
I17
I16
I14
I13
I13
I12
I12
I12
I11
I11
I11
I10
I10
I10
I9
I9
I9
I8
I8
I8
I7
I7
I7
I7
I8
I9
I9
I10
I10
I11
I11
I12
I13
I14
I14
I15
I16
I17
I18
I19
I20
I22
I23
I24
I26
I27
I28
I30
I32
I33
I35
I36
I38
I40
I42
I43
I45
I47
I49
I50
I52
I53
I55
I56
I57
I58
I59
I59
I60
I60
I61
I63
I64
I66
I67
I68
I69
I69
I70
I70
I72
I77
I83
I89
I95
I99
I99
I99
I99
I99
I99
I99
I99
I99
I99
I99
I99
I99
I99
I99
I99
I99
I99
I99
I99
I99
I99
I99
I99
I99
I99
I100
I100
I99
I99
I99
I99
I99
I99
I99
I99
I99
I100
I100
I100
I99
I99
I99
I99
I99
I99
I99
I99
I99
I99
I99
I100
I100
I100
I99
I100
I100
I100
I99
I99
I99
I99
I99
I99
I99
I99
I99
I99
I99
I99
I99
I99
I99
I99
I99
I99
I99
I99
I99
I99
I99
I99
I99
I99
I99
I99
I99
I99
I99
I94
I89
I83
I78
I73
I68
I63
I60
I55
I52
I48
I45
I42
I40
I37
I35
I33
I30
I28
I26
I25
I23
I21
I20
I19
I18
I16
I15
I14
I13
I12
I12
I11
I11
I11
I10
I10
I10
I9
I9
I9
I9
I8
I8
I7
I7
I7
I7
I7
I7
I8
I8
I9
I9
I10
I10
I11
I12
I12
I13
I14
I14
I15
I16
I17
I18
I19
I21
I22
I23
I24
I26
I27
I28
I30
I31
I33
I35
I36
I38
I39
I41
I42
I44
I45
I47
I48
I50
I51
I52
I53
I54
I55
I55
I55
I56
I57
I58
I60
I61
I62
I63
I64
I64
I65
I66
I70
I75
I80
I86
I92
I99
I99
I99
I99
I99
I99
I99
I99
I99
I99
I99
I99
I99
I99
I99
I99
I99
I99
I99
I99
I99
I99
I99
I99
I99
I99
I99
I100
I99
I99
I99
I99
I99
I99
I99
I99
I99
I100
I100
I99
I99
I99
I99
I99
I99
I100
I99
I99
I99
I100
I100
I100
I100
I100
I100
I100
I100
I99
I99
I99
I99
I99
I99
I99
I99
I99
I99
I99
I99
I99
I99
I99
I99
I99
I99
I99
I99
I99
I99
I99
I99
I99
I99
I99
I99
I99
I99
I99
I96
I90
I85
I80
I75
I70
I66
I62
I58
I54
I50
I47
I44
I41
I38
I36
I34
I31
I29
I28
I26
I24
I23
I21
I19
I18
I17
I16
I15
I14
I13
I12
I11
I11
I10
I10
I10
I9
I9
I9
I9
I8
I8
I7
I7
I7
I7
I7
I6
I7
I7
I7
I8
I8
I9
I9
I10
I10
I11
I12
I12
I13
I14
I15
I16
I16
I18
I19
I19
I21
I22
I23
I24
I26
I27
I28
I29
I31
I33
I34
I35
I37
I38
I40
I41
I43
I44
I45
I46
I47
I48
I49
I50
I51
I51
I52
I52
I53
I55
I56
I57
I58
I59
I59
I60
I60
I63
I68
I73
I78
I83
I89
I94
I99
I99
I99
I99
I99
I99
I99
I99
I99
I99
I99
I99
I99
I99
I99
I99
I99
I99
I99
I99
I99
I99
I99
I99
I99
I99
I99
I99
I99
I99
I99
I99
I99
I99
I99
I99
I100
I99
I99
I99
I99
I99
I99
I100
I100
I100
I99
I100
I100
I100
I100
I100
I99
I99
I99
I99
I99
I99
I99
I99
I99
I99
I99
I99
I99
I99
I99
I99
I99
I99
I99
I99
I99
I99
I99
I99
I99
I99
I99
I99
I99
I99
I99
I99
I99
I99
I97
I91
I86
I81
I77
I72
I67
I63
I59
I56
I52
I49
I45
I43
I40
I37
I35
I32
I30
I28
I26
I25
I23
I22
I20
I19
I18
I16
I15
I14
I13
I12
I12
I11
I10
I9
I9
I9
I9
I9
I8
I8
I7
I7
I7
I7
I7
I6
I6
I6
I6
I7
I7
I7
I8
I8
I9
I9
I10
I10
I11
I12
I12
I13
I14
I15
I16
I17
I18
I19
I20
I21
I22
I23
I24
I25
I27
I28
I29
I31
I32
I33
I35
I36
I37
I38
I40
I41
I42
I43
I44
I45
I46
I46
I47
I47
I48
I48
I50
I51
I52
I53
I54
I55
I55
I55
I58
I62
I66
I70
I75
I80
I85
I90
I96
I99
I99
I99
I99
I99
I99
I99
I99
I99
I99
I99
I99
I99
I99
I99
I99
I99
I99
I99
I99
I99
I99
I99
I99
I99
I99
I99
I99
I99
I99
I99
I99
I99
I99
I99
I99
I99
I99
I99
I99
I99
I99
I99
I100
I100
I100
I100
I99
I100
I100
I99
I99
I99
I99
I99
I99
I99
I99
I99
I99
I99
I99
I99
I99
I99
I99
I99
I99
I99
I99
I99
I99
I99
I99
I99
I99
I99
I99
I99
I99
I99
I99
I99
I99
I97
I92
I87
I82
I77
I73
I69
I65
I61
I57
I53
I50
I47
I44
I41
I38
I36
I33
I31
I29
I28
I26
I24
I23
I21
I19
I18
I17
I16
I15
I14
I13
I12
I11
I11
I10
I9
I9
I8
I8
I8
I7
I7
I7
I7
I7
I6
I6
I6
I6
I6
I6
I6
I7
I7
I7
I8
I8
I9
I9
I10
I11
I11
I12
I12
I13
I14
I15
I16
I17
I18
I19
I20
I21
I22
I23
I24
I25
I26
I28
I29
I30
I31
I32
I34
I35
I36
I37
I38
I39
I40
I41
I42
I43
I43
I44
I44
I44
I45
I46
I47
I48
I49
I50
I51
I51
I52
I56
I59
I63
I67
I72
I77
I81
I86
I91
I97
I99
I99
I99
I99
I99
I99
I99
I99
I99
I99
I99
I99
I99
I99
I99
I99
I99
I99
I99
I99
I99
I99
I99
I99
I99
I99
I99
I99
I99
I99
I99
I99
I99
I99
I99
I99
I99
I99
I99
I99
I99
I100
I100
I100
I100
I100
I99
I99
I99
I99
I99
I99
I99
I99
I99
I99
I99
I99
I99
I99
I99
I99
I99
I99
I99
I99
I99
I99
I99
I99
I99
I99
I99
I99
I99
I99
I99
I99
I99
I99
I99
I99
I96
I91
I87
I82
I78
I74
I70
I66
I62
I58
I55
I52
I48
I45
I42
I40
I37
I35
I33
I30
I28
I26
I25
I23
I22
I20
I19
I18
I17
I16
I14
I14
I12
I12
I11
I10
I9
I9
I8
I8
I7
I7
I7
I7
I7
I6
I6
I6
I6
I6
I6
I6
I6
I6
I6
I7
I7
I7
I8
I8
I9
I9
I10
I11
I11
I12
I13
I13
I14
I15
I16
I17
I18
I19
I19
I21
I22
I23
I24
I25
I26
I27
I28
I29
I30
I31
I33
I33
I35
I36
I36
I37
I38
I39
I40
I40
I40
I41
I41
I42
I43
I44
I45
I46
I46
I47
I47
I50
I53
I57
I61
I65
I69
I73
I77
I82
I87
I92
I97
I99
I99
I99
I99
I99
I99
I99
I99
I99
I99
I99
I99
I99
I99
I99
I99
I99
I99
I99
I99
I99
I99
I99
I99
I99
I99
I99
I99
I99
I99
I99
I99
I99
I99
I99
I99
I99
I99
I99
I100
I100
I100
I99
I100
I100
I99
I99
I100
I100
I100
I99
I99
I99
I99
I99
I99
I99
I99
I99
I99
I99
I99
I99
I99
I99
I99
I99
I99
I99
I99
I99
I99
I99
I99
I99
I99
I99
I99
I99
I99
I94
I90
I86
I82
I78
I74
I70
I67
I63
I59
I56
I53
I50
I46
I43
I41
I38
I36
I34
I31
I29
I28
I26
I24
I23
I21
I19
I18
I17
I16
I15
I14
I13
I12
I11
I11
I10
I9
I9
I8
I7
I7
I7
I7
I6
I6
I6
I6
I6
I6
I5
I6
I6
I6
I6
I6
I6
I7
I7
I7
I8
I9
I9
I9
I10
I11
I11
I12
I13
I14
I14
I15
I16
I17
I18
I19
I19
I20
I21
I22
I23
I24
I25
I26
I28
I28
I29
I30
I31
I32
I33
I34
I35
I35
I36
I37
I37
I38
I38
I38
I39
I40
I41
I42
I43
I43
I44
I45
I48
I52
I55
I58
I62
I66
I70
I74
I78
I82
I87
I92
I97
I99
I99
I99
I99
I99
I99
I99
I99
I99
I99
I99
I99
I99
I99
I99
I99
I99
I99
I99
I99
I99
I99
I99
I99
I99
I99
I99
I99
I99
I99
I99
I99
I99
I99
I99
I99
I99
I100
I100
I99
I99
I99
I99
I99
I99
I100
I100
I100
I100
I99
I99
I99
I99
I99
I99
I99
I99
I99
I99
I99
I99
I99
I99
I99
I99
I99
I99
I99
I99
I99
I99
I99
I99
I99
I99
I99
I99
I95
I92
I89
I85
I81
I77
I74
I70
I67
I63
I60
I57
I53
I50
I47
I45
I42
I39
I37
I35
I32
I30
I28
I26
I25
I23
I22
I20
I19
I18
I16
I16
I14
I14
I12
I12
I11
I10
I10
I9
I8
I8
I7
I7
I6
I6
I6
I6
I6
I6
I5
I6
I6
I6
I6
I6
I6
I7
I7
I7
I7
I7
I7
I8
I9
I9
I10
I10
I11
I11
I12
I13
I14
I14
I15
I16
I17
I18
I18
I19
I20
I21
I22
I23
I24
I25
I26
I26
I28
I28
I29
I30
I31
I31
I32
I33
I33
I34
I35
I35
I35
I36
I36
I37
I38
I39
I40
I40
I41
I43
I46
I50
I53
I56
I59
I63
I67
I70
I74
I78
I82
I87
I92
I97
I99
I99
I99
I99
I99
I99
I99
I99
I99
I99
I99
I99
I99
I99
I99
I99
I99
I99
I99
I99
I99
I99
I99
I99
I99
I99
I99
I99
I99
I99
I99
I99
I99
I99
I99
I100
I100
I100
I99
I99
I99
I99
I99
I99
I99
I100
I100
I99
I99
I99
I99
I99
I99
I99
I99
I99
I99
I99
I99
I99
I99
I99
I99
I99
I99
I99
I99
I99
I99
I99
I99
I99
I99
I96
I94
I92
I89
I86
I83
I80
I77
I73
I70
I67
I63
I60
I57
I54
I51
I48
I45
I43
I40
I38
I35
I33
I31
I29
I28
I26
I24
I23
I21
I19
I18
I17
I16
I15
I14
I13
I12
I11
I11
I10
I9
I9
I8
I7
I7
I7
I6
I6
I6
I6
I5
I6
I6
I6
I6
I6
I6
I7
I7
I7
I7
I7
I8
I8
I8
I8
I9
I9
I9
I10
I10
I11
I12
I12
I13
I14
I14
I15
I16
I16
I17
I18
I19
I20
I21
I21
I22
I23
I24
I25
I26
I26
I27
I28
I29
I29
I30
I31
I31
I32
I32
I32
I33
I33
I34
I35
I35
I36
I37
I37
I39
I42
I45
I47
I50
I53
I57
I60
I63
I67
I70
I74
I78
I82
I87
I92
I97
I99
I99
I99
I99
I99
I99
I99
I99
I99
I99
I99
I99
I99
I99
I99
I99
I99
I99
I99
I99
I99
I99
I99
I99
I99
I99
I99
I99
I99
I99
I99
I99
I99
I100
I100
I100
I100
I99
I99
I99
I99
I99
I99
I99
I99
I99
I99
I99
I99
I99
I99
I99
I99
I99
I99
I99
I99
I99
I99
I99
I99
I99
I99
I99
I99
I99
I99
I99
I96
I94
I93
I91
I90
I88
I86
I83
I80
I78
I75
I72
I69
I66
I63
I60
I57
I54
I51
I48
I46
I43
I41
I38
I36
I34
I32
I30
I28
I26
I25
I23
I22
I20
I19
I18
I17
I16
I14
I14
I12
I12
I11
I10
I10
I9
I9
I8
I7
I7
I6
I6
I6
I5
I5
I6
I6
I6
I6
I6
I7
I7
I7
I7
I7
I8
I8
I8
I9
I9
I9
I9
I9
I9
I10
I10
I11
I11
I12
I12
I13
I13
I14
I15
I16
I16
I17
I18
I19
I19
I20
I21
I22
I23
I23
I24
I25
I25
I26
I27
I28
I28
I28
I29
I29
I30
I30
I30
I31
I31
I32
I33
I33
I34
I35
I38
I40
I43
I45
I48
I51
I54
I57
I60
I63
I67
I70
I74
I78
I82
I87
I91
I96
I99
I99
I99
I99
I99
I99
I99
I99
I99
I99
I99
I99
I99
I99
I99
I99
I99
I99
I99
I99
I99
I99
I99
I99
I99
I99
I99
I99
I99
I99
I99
I99
I100
I100
I99
I99
I99
I99
I99
I99
I99
I99
I99
I99
I99
I99
I99
I99
I99
I99
I99
I99
I99
I99
I99
I99
I99
I99
I99
I99
I99
I99
I99
I99
I99
I99
I94
I90
I87
I86
I85
I84
I82
I80
I77
I75
I73
I70
I67
I65
I62
I59
I57
I54
I51
I48
I46
I43
I41
I39
I36
I35
I33
I31
I29
I27
I25
I24
I22
I21
I19
I18
I17
I16
I15
I14
I13
I12
I11
I11
I10
I9
I9
I8
I7
I7
I7
I6
I6
I6
I6
I6
I6
I6
I6
I7
I7
I7
I7
I7
I8
I8
I8
I9
I9
I9
I9
I10
I10
I10
I10
I11
I11
I11
I12
I12
I13
I13
I14
I14
I15
I16
I16
I17
I17
I18
I18
I19
I19
I20
I21
I22
I23
I23
I24
I24
I25
I26
I26
I26
I27
I27
I28
I28
I28
I29
I29
I30
I31
I31
I32
I34
I36
I38
I41
I43
I46
I48
I51
I54
I57
I60
I63
I67
I70
I74
I78
I82
I86
I90
I94
I99
I99
I99
I99
I99
I99
I99
I99
I99
I99
I99
I99
I99
I99
I99
I99
I99
I99
I99
I99
I99
I99
I99
I99
I99
I99
I99
I99
I99
I100
I100
I100
I100
I99
I99
I99
I99
I99
I99
I99
I99
I99
I99
I99
I99
I99
I99
I99
I99
I99
I99
I99
I99
I99
I99
I99
I99
I99
I99
I99
I99
I99
I99
I97
I92
I89
I85
I81
I80
I79
I77
I76
I74
I72
I70
I68
I66
I63
I61
I58
I56
I53
I51
I48
I46
I44
I41
I39
I37
I35
I33
I31
I29
I28
I26
I24
I23
I21
I20
I19
I18
I16
I16
I14
I14
I12
I12
I11
I10
I10
I9
I8
I8
I7
I7
I6
I6
I6
I6
I6
I6
I6
I7
I7
I7
I7
I7
I8
I8
I9
I9
I9
I9
I9
I10
I10
I10
I11
I11
I11
I11
I11
I12
I12
I13
I14
I14
I15
I15
I16
I16
I17
I18
I18
I19
I19
I20
I21
I21
I22
I22
I23
I23
I23
I24
I24
I24
I24
I24
I25
I25
I26
I26
I26
I27
I28
I28
I28
I29
I31
I33
I35
I36
I39
I41
I43
I46
I48
I51
I54
I57
I60
I63
I67
I70
I74
I77
I81
I85
I89
I92
I97
I99
I99
I99
I99
I99
I99
I99
I99
I99
I99
I99
I99
I99
I99
I99
I99
I99
I99
I99
I99
I99
I99
I99
I99
I99
I99
I99
I100
I100
I100
I99
I99
I99
I99
I99
I99
I99
I99
I99
I99
I99
I99
I99
I99
I99
I99
I99
I99
I99
I99
I99
I99
I99
I99
I99
I99
I99
I99
I99
I99
I97
I92
I87
I83
I80
I77
I74
I73
I72
I71
I69
I67
I66
I63
I62
I59
I57
I55
I53
I50
I48
I46
I43
I41
I39
I37
I35
I33
I31
I29
I28
I26
I25
I23
I22
I21
I19
I18
I17
I16
I15
I14
I13
I12
I11
I11
I10
I9
I9
I8
I7
I7
I7
I6
I6
I6
I6
I6
I6
I7
I7
I7
I7
I8
I8
I8
I9
I9
I9
I10
I10
I10
I11
I11
I11
I11
I12
I12
I12
I12
I12
I13
I14
I14
I15
I16
I16
I17
I18
I18
I19
I19
I20
I21
I21
I22
I23
I23
I24
I24
I24
I25
I25
I26
I26
I26
I26
I26
I26
I26
I26
I26
I26
I26
I26
I26
I28
I29
I31
I33
I35
I37
I39
I41
I44
I46
I48
I51
I54
I57
I60
I63
I67
I70
I73
I77
I80
I83
I87
I91
I96
I99
I99
I99
I99
I99
I99
I99
I99
I99
I99
I99
I99
I99
I99
I99
I99
I99
I99
I99
I99
I99
I99
I99
I99
I99
I100
I100
I100
I100
I99
I99
I99
I99
I99
I99
I99
I99
I99
I99
I99
I99
I99
I99
I99
I99
I99
I99
I99
I99
I99
I99
I99
I99
I99
I99
I99
I99
I99
I97
I92
I87
I82
I78
I75
I72
I69
I68
I67
I66
I64
I63
I61
I60
I58
I56
I53
I52
I50
I47
I45
I43
I41
I39
I37
I35
I33
I32
I30
I28
I27
I25
I24
I22
I21
I20
I19
I18
I16
I15
I14
I14
I12
I12
I11
I10
I10
I9
I9
I8
I7
I7
I6
I6
I6
I6
I6
I6
I7
I7
I7
I8
I8
I8
I9
I9
I9
I10
I10
I10
I11
I11
I11
I12
I12
I12
I12
I13
I13
I13
I13
I14
I15
I15
I16
I17
I18
I18
I19
I19
I20
I21
I22
I23
I23
I24
I24
I25
I26
I26
I26
I27
I27
I28
I28
I28
I28
I28
I28
I28
I28
I28
I28
I28
I27
I27
I26
I28
I29
I31
I33
I35
I37
I39
I41
I44
I46
I48
I51
I54
I57
I60
I63
I66
I69
I72
I75
I78
I82
I86
I90
I94
I99
I99
I99
I99
I99
I99
I99
I99
I99
I99
I99
I99
I99
I99
I99
I99
I99
I99
I99
I99
I99
I99
I99
I99
I100
I100
I100
I99
I99
I99
I99
I99
I99
I99
I99
I99
I99
I99
I99
I99
I99
I99
I99
I99
I99
I99
I99
I99
I99
I99
I99
I99
I99
I99
I99
I99
I99
I92
I87
I82
I78
I74
I70
I67
I65
I63
I62
I61
I60
I58
I57
I55
I54
I52
I50
I48
I46
I45
I43
I41
I39
I37
I35
I33
I32
I30
I28
I27
I25
I24
I23
I21
I20
I19
I18
I17
I16
I15
I14
I13
I12
I11
I11
I10
I9
I9
I8
I7
I7
I7
I6
I6
I6
I6
I7
I7
I7
I7
I8
I8
I9
I9
I9
I10
I10
I10
I11
I11
I11
I12
I12
I12
I13
I13
I13
I14
I14
I14
I14
I15
I16
I16
I17
I18
I19
I19
I20
I21
I22
I23
I23
I24
I25
I25
I26
I27
I28
I28
I28
I29
I29
I30
I30
I30
I31
I31
I31
I31
I31
I30
I30
I30
I29
I29
I28
I28
I28
I30
I32
I33
I35
I37
I39
I41
I44
I46
I48
I51
I54
I57
I59
I62
I65
I67
I70
I74
I77
I81
I85
I89
I92
I95
I99
I99
I99
I99
I99
I99
I99
I99
I99
I99
I99
I99
I99
I99
I99
I99
I99
I99
I99
I99
I99
I100
I100
I100
I99
I99
I99
I99
I99
I99
I99
I99
I99
I99
I99
I99
I99
I99
I99
I99
I99
I99
I99
I99
I99
I99
I99
I99
I99
I99
I99
I99
I99
I99
I95
I89
I83
I78
I74
I70
I67
I63
I61
I59
I58
I57
I56
I55
I53
I52
I50
I49
I47
I45
I43
I42
I40
I38
I36
I35
I33
I32
I30
I28
I27
I26
I24
I23
I22
I20
I19
I18
I17
I16
I15
I14
I13
I12
I12
I11
I10
I10
I9
I8
I8
I7
I7
I6
I6
I6
I6
I7
I7
I7
I7
I8
I8
I9
I9
I9
I10
I10
I11
I11
I11
I12
I12
I12
I13
I13
I14
I14
I14
I15
I15
I15
I16
I16
I16
I17
I18
I19
I20
I21
I21
I22
I23
I24
I25
I26
I26
I27
I28
I29
I29
I30
I31
I31
I32
I32
I32
I33
I33
I33
I33
I33
I33
I33
I32
I32
I32
I31
I31
I30
I29
I29
I30
I32
I33
I35
I37
I39
I41
I44
I46
I48
I51
I53
I56
I58
I61
I63
I67
I70
I73
I77
I80
I83
I86
I89
I92
I96
I99
I99
I99
I99
I99
I99
I99
I99
I99
I99
I99
I99
I99
I99
I99
I99
I99
I99
I99
I100
I100
I100
I99
I99
I99
I99
I99
I99
I99
I99
I99
I99
I99
I99
I99
I99
I99
I99
I99
I99
I99
I99
I99
I99
I99
I99
I99
I99
I99
I99
I99
I99
I92
I86
I80
I75
I70
I67
I63
I60
I57
I55
I54
I53
I52
I51
I50
I48
I47
I45
I44
I42
I41
I39
I38
I36
I35
I33
I31
I30
I28
I27
I26
I24
I23
I22
I21
I19
I18
I17
I16
I15
I14
I14
I13
I12
I11
I11
I10
I9
I9
I8
I7
I7
I7
I6
I6
I6
I7
I7
I7
I8
I8
I9
I9
I9
I10
I10
I11
I11
I11
I12
I12
I12
I13
I14
I14
I14
I15
I15
I16
I16
I16
I16
I17
I17
I18
I18
I19
I20
I21
I22
I23
I24
I25
I26
I26
I28
I28
I29
I30
I31
I31
I32
I33
I33
I34
I35
I35
I35
I35
I36
I36
I36
I35
I35
I35
I35
I34
I33
I33
I32
I31
I31
I30
I30
I32
I33
I35
I37
I39
I41
I43
I46
I48
I50
I53
I55
I57
I60
I63
I66
I69
I72
I75
I78
I80
I83
I86
I90
I94
I99
I99
I99
I99
I99
I99
I99
I99
I99
I99
I99
I99
I99
I99
I99
I99
I100
I100
I100
I100
I99
I99
I99
I99
I99
I99
I99
I99
I99
I99
I99
I99
I99
I99
I99
I99
I99
I99
I99
I99
I99
I99
I99
I99
I99
I99
I99
I99
I99
I99
I94
I89
I83
I78
I73
I68
I63
I60
I57
I54
I52
I50
I49
I48
I47
I46
I45
I44
I43
I41
I40
I38
I37
I35
I34
I33
I31
I29
I28
I27
I26
I24
I23
I22
I21
I19
I19
I18
I16
I16
I15
I14
I13
I12
I11
I11
I10
I9
I9
I8
I8
I7
I7
I6
I6
I6
I7
I7
I7
I8
I8
I9
I9
I9
I10
I10
I11
I11
I12
I12
I12
I13
I14
I14
I14
I15
I15
I16
I16
I17
I17
I18
I18
I18
I18
I19
I19
I20
I21
I22
I23
I24
I25
I26
I28
I28
I29
I30
I31
I32
I33
I34
I35
I35
I36
I37
I37
I38
I38
I38
I38
I38
I38
I38
I38
I38
I37
I37
I36
I35
I35
I34
I33
I32
I31
I31
I32
I33
I35
I37
I39
I41
I43
I45
I47
I50
I52
I54
I57
I59
I62
I65
I67
I70
I73
I75
I77
I81
I85
I89
I92
I95
I99
I99
I99
I99
I99
I99
I99
I99
I99
I99
I99
I99
I99
I99
I99
I100
I99
I99
I99
I99
I99
I99
I99
I99
I99
I99
I99
I99
I99
I99
I99
I99
I99
I99
I99
I99
I99
I99
I99
I99
I99
I99
I99
I99
I99
I99
I99
I96
I90
I85
I80
I75
I70
I66
I62
I58
I54
I51
I48
I46
I46
I45
I44
I43
I42
I41
I40
I38
I37
I36
I35
I33
I32
I31
I29
I28
I27
I25
I24
I23
I22
I21
I20
I19
I18
I17
I16
I15
I14
I13
I12
I12
I11
I10
I10
I9
I9
I8
I7
I7
I7
I6
I6
I7
I7
I7
I8
I8
I9
I9
I9
I10
I11
I11
I11
I12
I12
I13
I14
I14
I14
I15
I16
I16
I16
I17
I18
I18
I18
I19
I19
I19
I20
I20
I21
I22
I23
I24
I25
I26
I27
I28
I29
I30
I31
I33
I33
I35
I36
I36
I37
I38
I39
I40
I40
I40
I41
I41
I41
I41
I41
I41
I41
I40
I40
I40
I39
I38
I37
I36
I36
I35
I33
I34
I35
I35
I36
I37
I37
I39
I41
I43
I45
I46
I48
I51
I53
I56
I58
I61
I63
I66
I68
I70
I73
I77
I80
I83
I86
I89
I92
I94
I96
I99
I99
I99
I99
I99
I99
I99
I99
I99
I99
I99
I99
I99
I99
I99
I99
I99
I99
I99
I99
I99
I99
I99
I99
I99
I99
I99
I99
I99
I99
I99
I99
I99
I99
I99
I99
I99
I99
I99
I99
I99
I99
I99
I97
I91
I86
I81
I77
I72
I67
I63
I59
I56
I52
I49
I46
I44
I43
I42
I41
I40
I39
I38
I37
I36
I35
I34
I32
I31
I30
I29
I28
I26
I25
I24
I23
I22
I21
I20
I19
I18
I17
I16
I15
I14
I13
I12
I12
I11
I11
I10
I9
I9
I8
I8
I7
I7
I6
I6
I7
I7
I7
I8
I8
I9
I9
I10
I10
I11
I11
I12
I12
I13
I13
I14
I14
I15
I16
I16
I17
I17
I18
I18
I19
I19
I20
I20
I21
I21
I21
I21
I22
I23
I24
I25
I26
I28
I29
I30
I31
I32
I34
I35
I36
I37
I38
I39
I40
I41
I42
I43
I43
I44
I44
I44
I45
I45
I45
I44
I44
I44
I43
I43
I42
I41
I40
I39
I38
I37
I36
I36
I37
I38
I39
I40
I40
I40
I41
I41
I42
I43
I46
I48
I50
I53
I55
I57
I59
I62
I63
I66
I69
I72
I75
I78
I80
I83
I86
I88
I90
I91
I93
I94
I94
I94
I99
I99
I99
I99
I99
I99
I99
I99
I99
I99
I99
I99
I99
I99
I99
I99
I99
I99
I99
I99
I99
I99
I99
I99
I99
I99
I99
I99
I99
I99
I99
I99
I99
I99
I99
I99
I99
I99
I99
I91
I85
I79
I73
I69
I65
I61
I57
I53
I50
I47
I44
I41
I40
I39
I38
I37
I36
I36
I35
I33
I33
I31
I30
I29
I28
I27
I26
I25
I24
I23
I22
I21
I19
I19
I18
I17
I16
I15
I14
I13
I13
I12
I11
I11
I10
I9
I9
I8
I8
I7
I7
I7
I6
I7
I7
I7
I8
I8
I9
I9
I10
I10
I11
I11
I12
I12
I13
I14
I14
I15
I15
I16
I16
I17
I18
I18
I19
I19
I20
I21
I21
I22
I22
I23
I23
I23
I24
I24
I25
I27
I28
I29
I31
I32
I33
I35
I36
I37
I38
I40
I41
I42
I43
I44
I45
I46
I46
I47
I47
I48
I48
I48
I48
I48
I47
I47
I46
I46
I45
I44
I43
I42
I41
I40
I38
I39
I40
I41
I42
I43
I43
I44
I44
I44
I45
I45
I45
I46
I47
I50
I52
I53
I56
I58
I60
I62
I65
I67
I70
I73
I75
I77
I80
I82
I84
I85
I86
I87
I87
I87
I99
I99
I99
I99
I99
I99
I99
I99
I99
I99
I99
I99
I99
I99
I99
I99
I99
I99
I99
I99
I99
I99
I99
I99
I99
I99
I99
I99
I99
I99
I99
I99
I99
I99
I99
I99
I99
I99
I99
I93
I86
I80
I74
I69
I64
I59
I55
I52
I48
I45
I42
I40
I37
I36
I35
I35
I34
I33
I32
I31
I30
I29
I28
I28
I26
I25
I24
I23
I22
I21
I20
I19
I19
I18
I17
I16
I15
I14
I14
I13
I12
I11
I11
I10
I9
I9
I9
I8
I7
I7
I7
I6
I7
I7
I7
I8
I8
I9
I9
I10
I10
I11
I11
I12
I12
I13
I14
I14
I15
I16
I16
I17
I18
I18
I19
I19
I20
I21
I21
I22
I23
I23
I24
I24
I24
I25
I25
I26
I27
I28
I29
I31
I33
I34
I35
I37
I38
I40
I41
I43
I44
I45
I46
I47
I48
I49
I50
I51
I51
I52
I52
I52
I52
I52
I51
I51
I50
I49
I48
I47
I46
I45
I44
I43
I41
I42
I43
I44
I45
I46
I46
I47
I47
I48
I48
I48
I48
I49
I50
I51
I51
I52
I52
I54
I56
I58
I61
I63
I66
I68
I70
I72
I74
I76
I77
I79
I80
I80
I81
I81
I99
I99
I99
I99
I99
I99
I99
I99
I99
I99
I99
I99
I99
I99
I99
I99
I99
I99
I99
I99
I99
I99
I99
I99
I99
I99
I99
I99
I99
I99
I99
I99
I99
I99
I99
I99
I99
I99
I99
I94
I87
I80
I75
I69
I64
I60
I55
I52
I48
I44
I41
I38
I36
I34
I33
I32
I31
I31
I30
I29
I28
I28
I26
I26
I25
I24
I23
I22
I21
I20
I19
I18
I18
I17
I16
I15
I14
I14
I13
I12
I11
I11
I10
I10
I9
I9
I8
I7
I7
I7
I6
I7
I7
I7
I8
I8
I9
I9
I10
I10
I11
I11
I12
I13
I13
I14
I15
I15
I16
I17
I18
I18
I19
I19
I20
I21
I22
I23
I23
I24
I24
I25
I26
I26
I26
I27
I27
I28
I28
I30
I31
I33
I35
I36
I38
I39
I41
I42
I44
I45
I47
I48
I50
I51
I52
I53
I54
I55
I55
I55
I56
I56
I56
I55
I55
I55
I54
I53
I52
I51
I50
I48
I47
I45
I44
I45
I46
I47
I48
I49
I50
I51
I51
I52
I52
I52
I52
I53
I54
I55
I55
I55
I56
I56
I56
I55
I57
I59
I62
I63
I66
I67
I69
I71
I72
I73
I74
I75
I75
I75
I99
I99
I99
I99
I99
I99
I99
I99
I99
I99
I99
I99
I99
I99
I99
I99
I99
I99
I99
I99
I99
I99
I99
I99
I99
I99
I99
I99
I99
I99
I99
I99
I99
I99
I99
I99
I99
I99
I99
I94
I87
I81
I75
I70
I65
I60
I56
I52
I48
I45
I41
I38
I36
I33
I31
I30
I29
I29
I28
I27
I26
I26
I25
I24
I23
I22
I21
I21
I20
I19
I18
I17
I16
I16
I15
I14
I14
I13
I12
I12
I11
I10
I10
I9
I9
I8
I8
I7
I7
I6
I7
I7
I7
I8
I8
I9
I9
I10
I10
I11
I12
I12
I13
I13
I14
I15
I16
I16
I17
I18
I19
I19
I20
I21
I22
I23
I23
I24
I25
I25
I26
I27
I28
I28
I28
I29
I29
I30
I30
I32
I33
I35
I36
I38
I40
I42
I43
I45
I47
I49
I50
I52
I53
I55
I56
I57
I58
I59
I59
I60
I60
I60
I60
I60
I59
I59
I58
I57
I56
I55
I53
I52
I50
I49
I47
I48
I50
I51
I52
I53
I54
I55
I55
I55
I56
I56
I56
I57
I58
I59
I59
I60
I60
I60
I60
I60
I59
I59
I58
I60
I61
I63
I64
I66
I67
I68
I69
I69
I70
I70
I99
I99
I99
I99
I99
I99
I99
I99
I99
I99
I99
I99
I99
I99
I99
I99
I99
I99
I99
I99
I99
I100
I99
I99
I99
I99
I99
I99
I99
I99
I99
I99
I99
I99
I99
I99
I99
I99
I99
I94
I87
I81
I75
I70
I65
I60
I56
I52
I48
I45
I41
I38
I36
I33
I31
I28
I28
I27
I26
I25
I25
I24
I23
I23
I22
I21
I20
I19
I19
I18
I17
I16
I16
I15
I14
I13
I13
I12
I12
I11
I10
I10
I9
I9
I8
I8
I7
I7
I7
I6
I7
I7
I8
I8
I9
I9
I10
I10
I11
I12
I12
I13
I14
I14
I15
I16
I16
I17
I18
I19
I20
I21
I21
I22
I23
I24
I25
I26
I26
I27
I28
I29
I29
I30
I31
I31
I32
I32
I32
I33
I35
I37
I39
I41
I43
I45
I46
I48
I50
I52
I54
I55
I57
I58
I60
I61
I62
I63
I64
I64
I65
I65
I65
I64
I64
I63
I62
I61
I60
I58
I57
I55
I54
I52
I50
I52
I53
I55
I56
I57
I58
I59
I59
I60
I60
I60
I60
I61
I62
I63
I64
I64
I65
I65
I65
I64
I64
I63
I62
I61
I60
I58
I60
I61
I62
I63
I64
I64
I65
I65
I99
I99
I99
I99
I99
I99
I99
I99
I99
I99
I99
I99
I99
I99
I99
I100
I99
I100
I100
I99
I99
I99
I99
I99
I99
I99
I99
I99
I99
I99
I99
I99
I99
I99
I99
I99
I99
I99
I99
I94
I87
I81
I75
I70
I65
I60
I56
I52
I48
I45
I41
I38
I36
I33
I31
I28
I26
I25
I24
I24
I23
I23
I22
I21
I20
I19
I19
I18
I18
I17
I16
I15
I15
I14
I13
I13
I12
I11
I11
I10
I10
I9
I9
I8
I8
I7
I7
I7
I6
I7
I7
I7
I8
I9
I9
I10
I10
I11
I11
I12
I13
I14
I14
I15
I16
I17
I18
I18
I19
I20
I21
I22
I23
I24
I25
I26
I26
I28
I28
I29
I30
I31
I31
I32
I33
I33
I34
I35
I35
I35
I37
I39
I41
I43
I45
I47
I50
I52
I53
I56
I58
I60
I61
I63
I64
I66
I67
I68
I69
I69
I70
I70
I70
I69
I69
I68
I67
I66
I64
I63
I61
I60
I58
I56
I54
I55
I57
I58
I60
I61
I62
I63
I64
I64
I65
I65
I65
I66
I67
I68
I69
I69
I70
I70
I70
I69
I69
I68
I67
I66
I64
I63
I61
I60
I58
I59
I59
I60
I60
I60
I99
I99
I99
I99
I99
I99
I99
I99
I99
I99
I100
I100
I100
I100
I99
I99
I100
I100
I100
I99
I99
I99
I99
I99
I99
I99
I99
I99
I99
I99
I99
I99
I99
I99
I99
I99
I99
I99
I99
I94
I87
I80
I75
I69
I64
I60
I55
I52
I48
I44
I41
I38
I35
I33
I31
I28
I26
I24
I23
I22
I21
I21
I20
I19
I19
I18
I18
I17
I16
I16
I15
I14
I14
I13
I12
I12
I11
I11
I10
I10
I9
I9
I8
I8
I7
I7
I7
I6
I7
I7
I7
I8
I9
I9
I9
I10
I11
I11
I12
I13
I14
I14
I15
I16
I17
I18
I19
I19
I20
I21
I22
I23
I24
I25
I26
I28
I28
I29
I30
I31
I32
I33
I34
I35
I35
I36
I37
I37
I38
I38
I39
I41
I43
I46
I48
I50
I53
I55
I57
I59
I62
I63
I66
I67
I69
I71
I72
I73
I74
I75
I75
I75
I75
I75
I74
I73
I72
I71
I69
I67
I66
I63
I62
I59
I58
I60
I61
I63
I64
I66
I67
I68
I69
I69
I70
I70
I70
I71
I72
I73
I74
I75
I75
I75
I75
I75
I74
I73
I72
I71
I69
I67
I66
I63
I62
I60
I58
I56
I56
I56
I99
I99
I99
I99
I99
I99
I99
I99
I99
I99
I99
I100
I100
I99
I99
I99
I99
I99
I99
I100
I99
I99
I99
I99
I99
I99
I99
I99
I99
I99
I99
I99
I99
I99
I99
I99
I99
I99
I99
I93
I86
I80
I74
I69
I64
I59
I55
I51
I47
I44
I41
I38
I35
I33
I30
I28
I26
I24
I23
I21
I20
I19
I19
I18
I18
I17
I16
I16
I15
I15
I14
I14
I13
I12
I12
I11
I11
I10
I10
I9
I9
I8
I8
I7
I7
I7
I6
I7
I7
I7
I8
I8
I9
I9
I10
I11
I11
I12
I13
I13
I14
I15
I16
I17
I18
I19
I19
I21
I22
I23
I24
I25
I26
I27
I28
I29
I30
I31
I33
I33
I35
I36
I36
I37
I38
I39
I40
I40
I40
I41
I41
I44
I46
I48
I51
I53
I56
I58
I61
I63
I66
I68
I70
I72
I74
I76
I77
I79
I80
I80
I81
I81
I81
I80
I80
I79
I77
I76
I74
I72
I70
I68
I66
I63
I62
I63
I66
I67
I69
I71
I72
I73
I74
I75
I75
I75
I75
I76
I77
I79
I80
I80
I81
I81
I81
I80
I80
I79
I77
I76
I74
I72
I70
I68
I66
I63
I62
I59
I57
I55
I99
I99
I99
I99
I99
I99
I99
I99
I99
I99
I99
I99
I99
I99
I99
I99
I99
I99
I99
I99
I99
I99
I99
I99
I99
I99
I99
I99
I99
I99
I99
I99
I99
I99
I99
I99
I99
I99
I99
I91
I85
I79
I73
I68
I63
I59
I55
I51
I47
I44
I40
I38
I35
I32
I30
I28
I26
I24
I22
I21
I19
I18
I18
I17
I17
I16
I16
I15
I14
I14
I13
I13
I12
I12
I11
I11
I10
I10
I9
I9
I8
I8
I7
I7
I7
I6
I6
I7
I7
I8
I8
I9
I9
I10
I11
I11
I12
I12
I13
I14
I15
I16
I17
I18
I19
I20
I21
I22
I23
I24
I25
I26
I28
I29
I30
I31
I32
I34
I35
I36
I37
I38
I39
I40
I41
I42
I43
I43
I44
I44
I44
I46
I48
I51
I54
I57
I59
I62
I65
I67
I70
I73
I75
I77
I80
I82
I84
I85
I86
I87
I87
I87
I87
I87
I86
I85
I84
I82
I80
I77
I75
I73
I70
I67
I66
I68
I70
I72
I74
I76
I77
I79
I80
I80
I81
I81
I81
I82
I84
I85
I86
I87
I87
I87
I87
I87
I86
I85
I84
I82
I80
I77
I75
I73
I70
I68
I66
I63
I61
I58
I99
I99
I99
I99
I99
I99
I99
I99
I99
I99
I99
I99
I99
I99
I99
I99
I99
I99
I99
I99
I99
I99
I99
I99
I99
I99
I99
I99
I99
I99
I99
I99
I99
I99
I99
I99
I99
I99
I96
I90
I84
I77
I72
I67
I62
I58
I54
I50
I46
I43
I40
I37
I35
I32
I30
I28
I26
I24
I22
I21
I19
I18
I16
I16
I16
I15
I14
I14
I14
I13
I12
I12
I11
I11
I11
I10
I9
I9
I9
I8
I8
I7
I7
I7
I6
I6
I7
I7
I7
I8
I9
I9
I10
I10
I11
I12
I12
I13
I14
I15
I16
I17
I18
I19
I20
I21
I22
I23
I24
I25
I27
I28
I29
I31
I32
I33
I35
I36
I37
I38
I40
I41
I42
I43
I44
I45
I46
I46
I47
I47
I48
I48
I51
I54
I57
I60
I63
I66
I69
I72
I75
I78
I80
I83
I86
I88
I90
I91
I93
I94
I94
I94
I94
I94
I93
I91
I90
I88
I86
I83
I80
I78
I75
I72
I70
I73
I75
I77
I80
I82
I84
I85
I86
I87
I87
I87
I87
I88
I90
I91
I93
I94
I94
I94
I94
I94
I93
I91
I90
I88
I86
I83
I80
I78
I75
I73
I70
I67
I65
I62
I99
I99
I99
I99
I99
I99
I99
I99
I99
I99
I99
I99
I99
I99
I99
I99
I99
I99
I99
I99
I99
I99
I99
I99
I99
I99
I99
I99
I99
I99
I99
I99
I99
I99
I99
I99
I99
I99
I94
I88
I82
I76
I71
I66
I61
I57
I53
I49
I46
I43
I40
I37
I34
I32
I29
I27
I25
I24
I22
I20
I19
I18
I16
I15
I14
I14
I14
I13
I12
I12
I12
I11
I11
I10
I10
I9
I9
I9
I8
I8
I7
I7
I7
I6
I6
I6
I7
I7
I8
I8
I9
I9
I10
I11
I11
I12
I13
I14
I15
I16
I16
I18
I19
I19
I21
I22
I23
I24
I26
I27
I28
I29
I31
I33
I34
I35
I37
I38
I40
I41
I43
I44
I45
I46
I47
I48
I49
I50
I51
I51
I52
I52
I54
I57
I60
I63
I67
I70
I73
I77
I80
I83
I86
I89
I92
I94
I96
I99
I99
I99
I99
I99
I99
I99
I99
I99
I96
I94
I92
I89
I86
I83
I80
I77
I75
I78
I80
I83
I86
I88
I90
I91
I93
I94
I94
I94
I94
I94
I96
I99
I99
I99
I99
I99
I99
I99
I99
I99
I96
I94
I92
I89
I86
I83
I80
I78
I75
I72
I69
I66
I99
I99
I99
I99
I99
I99
I99
I99
I99
I99
I99
I99
I99
I99
I99
I99
I99
I99
I99
I99
I99
I99
I99
I99
I99
I99
I99
I99
I99
I99
I99
I99
I99
I99
I99
I99
I99
I99
I92
I86
I80
I74
I69
I64
I60
I56
I52
I48
I45
I42
I39
I36
I33
I31
I29
I27
I25
I23
I21
I20
I19
I17
I16
I15
I14
I13
I12
I12
I12
I11
I11
I11
I10
I10
I9
I9
I9
I8
I8
I7
I7
I7
I6
I6
I6
I7
I7
I7
I8
I9
I9
I10
I11
I11
I12
I13
I14
I14
I15
I16
I17
I18
I19
I21
I22
I23
I24
I26
I27
I28
I30
I31
I33
I35
I36
I38
I39
I41
I42
I44
I45
I47
I48
I50
I51
I52
I53
I54
I55
I55
I55
I56
I57
I60
I63
I67
I70
I74
I77
I81
I85
I89
I92
I95
I99
I99
I99
I99
I99
I99
I99
I99
I99
I99
I99
I99
I99
I99
I99
I95
I92
I89
I85
I81
I80
I83
I86
I89
I92
I94
I96
I99
I99
I99
I99
I99
I99
I99
I99
I99
I99
I99
I99
I99
I99
I99
I99
I99
I99
I99
I99
I95
I92
I89
I86
I83
I80
I77
I73
I70
I99
I99
I99
I99
I99
I99
I99
I99
I99
I99
I99
I99
I99
I99
I99
I99
I99
I99
I99
I99
I99
I99
I99
I99
I99
I99
I99
I99
I99
I99
I99
I99
I99
I99
I99
I99
I99
I95
I89
I83
I77
I72
I67
I63
I58
I55
I51
I47
I44
I41
I38
I35
I33
I31
I28
I26
I24
I23
I21
I20
I18
I17
I16
I15
I14
I12
I12
I11
I11
I11
I10
I10
I9
I9
I9
I8
I8
I7
I7
I7
I7
I6
I6
I6
I6
I7
I7
I8
I8
I9
I10
I10
I11
I12
I12
I13
I14
I15
I16
I17
I18
I19
I20
I22
I23
I24
I26
I27
I28
I30
I32
I33
I35
I36
I38
I40
I42
I43
I45
I47
I49
I50
I52
I53
I55
I56
I57
I58
I59
I59
I60
I60
I61
I63
I67
I70
I74
I78
I82
I86
I90
I94
I99
I99
I99
I99
I99
I99
I99
I99
I99
I99
I99
I99
I99
I99
I99
I99
I99
I99
I99
I94
I90
I87
I86
I89
I92
I95
I99
I99
I99
I99
I99
I99
I99
I99
I99
I99
I99
I99
I99
I99
I99
I99
I99
I99
I99
I99
I99
I99
I99
I99
I99
I95
I92
I89
I85
I81
I77
I74
I99
I99
I99
I99
I99
I99
I99
I99
I99
I99
I99
I99
I99
I99
I99
I99
I99
I99
I99
I99
I99
I99
I99
I99
I99
I99
I99
I99
I99
I99
I99
I99
I99
I99
I99
I99
I99
I92
I86
I80
I75
I70
I66
I61
I57
I53
I50
I46
I43
I40
I37
I35
I32
I30
I28
I26
I24
I23
I21
I19
I18
I17
I16
I14
I13
I12
I12
I11
I10
I10
I10
I9
I9
I9
I8
I8
I7
I7
I7
I7
I6
I6
I6
I6
I7
I7
I7
I8
I9
I9
I10
I11
I11
I12
I13
I14
I15
I16
I17
I18
I19
I20
I21
I23
I24
I25
I27
I28
I30
I32
I33
I35
I37
I39
I41
I43
I45
I46
I48
I50
I52
I54
I55
I57
I58
I60
I61
I62
I63
I64
I64
I65
I66
I67
I70
I74
I78
I82
I87
I91
I96
I99
I99
I99
I99
I99
I99
I99
I99
I99
I99
I99
I99
I99
I99
I99
I99
I99
I99
I99
I99
I99
I96
I94
I93
I95
I99
I99
I99
I99
I99
I99
I99
I99
I99
I99
I99
I99
I99
I99
I99
I99
I99
I99
I99
I99
I99
I99
I99
I99
I99
I99
I99
I99
I99
I94
I90
I86
I82
I78
I99
I99
I99
I99
I99
I99
I99
I99
I99
I99
I99
I99
I99
I99
I99
I99
I99
I99
I99
I99
I99
I99
I99
I99
I99
I99
I99
I99
I99
I99
I99
I99
I99
I99
I99
I99
I94
I89
I83
I78
I73
I68
I63
I60
I55
I52
I48
I45
I42
I39
I36
I34
I31
I29
I28
I26
I24
I22
I21
I19
I18
I16
I15
I14
I13
I12
I11
I11
I10
I9
I9
I9
I8
I8
I8
I7
I7
I7
I6
I6
I6
I6
I6
I6
I7
I7
I8
I9
I9
I10
I10
I11
I12
I12
I14
I14
I15
I16
I18
I19
I20
I21
I22
I24
I25
I27
I28
I30
I32
I33
I35
I37
I39
I41
I43
I45
I47
I50
I52
I53
I56
I58
I60
I61
I63
I64
I66
I67
I68
I69
I69
I70
I71
I72
I73
I77
I82
I87
I92
I97
I99
I99
I99
I99
I99
I99
I99
I99
I99
I99
I99
I99
I99
I99
I99
I99
I99
I99
I99
I99
I99
I99
I99
I99
I99
I99
I99
I99
I99
I99
I99
I99
I99
I99
I99
I99
I99
I99
I99
I99
I99
I99
I99
I99
I99
I99
I99
I99
I99
I99
I99
I99
I99
I99
I99
I99
I96
I91
I87
I82
I99
I99
I99
I99
I99
I99
I99
I99
I99
I99
I99
I99
I99
I99
I99
I99
I99
I99
I99
I99
I99
I99
I99
I99
I99
I99
I99
I99
I99
I99
I99
I99
I99
I99
I99
I96
I90
I85
I80
I75
I70
I66
I62
I58
I54
I50
I47
I44
I41
I38
I36
I33
I31
I29
I27
I25
I23
I22
I20
I19
I18
I16
I15
I14
I13
I12
I11
I11
I10
I9
I8
I8
I8
I7
I7
I7
I7
I6
I6
I6
I6
I6
I6
I7
I7
I7
I8
I9
I9
I10
I11
I11
I12
I13
I14
I15
I16
I17
I18
I19
I21
I22
I23
I25
I26
I28
I29
I31
I33
I35
I37
I39
I41
I43
I46
I48
I50
I53
I55
I57
I59
I62
I63
I66
I67
I69
I71
I72
I73
I74
I75
I75
I76
I77
I79
I81
I86
I91
I97
I99
I99
I99
I99
I99
I99
I99
I99
I99
I99
I99
I99
I99
I99
I99
I99
I99
I99
I99
I99
I99
I99
I99
I99
I99
I99
I99
I99
I99
I99
I99
I99
I99
I99
I99
I99
I99
I99
I99
I99
I99
I99
I99
I99
I99
I99
I99
I99
I99
I99
I99
I99
I99
I99
I99
I99
I99
I99
I97
I92
I87
I99
I99
I99
I99
I99
I99
I99
I99
I99
I99
I99
I99
I99
I99
I99
I99
I99
I99
I99
I99
I99
I99
I99
I99
I99
I99
I99
I99
I99
I99
I99
I99
I99
I99
I99
I92
I86
I81
I77
I72
I67
I63
I59
I56
I52
I49
I45
I43
I40
I37
I35
I32
I30
I28
I26
I24
I23
I21
I20
I18
I17
I16
I15
I14
I13
I12
I11
I10
I9
I9
I8
I7
I7
I7
I7
I7
I6
I6
I6
I6
I6
I6
I6
I7
I7
I8
I8
I9
I10
I10
I11
I12
I12
I14
I14
I16
I16
I18
I19
I20
I21
I23
I24
I26
I28
I29
I31
I33
I35
I37
I39
I41
I44
I46
I48
I51
I53
I56
I58
I61
I63
I66
I68
I70
I72
I74
I76
I77
I79
I80
I80
I81
I82
I84
I85
I86
I90
I96
I99
I99
I99
I99
I99
I99
I99
I99
I99
I99
I99
I99
I99
I99
I99
I99
I99
I99
I99
I99
I99
I99
I99
I99
I99
I99
I99
I99
I99
I99
I99
I99
I99
I99
I99
I99
I99
I99
I99
I99
I99
I99
I99
I99
I99
I99
I99
I99
I99
I99
I99
I99
I99
I99
I99
I99
I99
I99
I99
I99
I97
I91
I99
I99
I99
I99
I99
I99
I99
I99
I99
I99
I99
I99
I99
I99
I99
I99
I99
I99
I99
I99
I99
I99
I99
I99
I99
I99
I99
I99
I99
I99
I99
I99
I99
I99
I94
I89
I83
I78
I73
I69
I65
I61
I57
I53
I50
I47
I44
I41
I38
I36
I33
I31
I29
I27
I25
I24
I22
I21
I19
I18
I17
I16
I14
I13
I12
I12
I11
I10
I9
I9
I8
I7
I7
I7
I6
I6
I6
I6
I6
I5
I6
I6
I7
I7
I7
I8
I9
I9
I10
I11
I11
I12
I13
I14
I15
I16
I17
I18
I19
I21
I22
I24
I25
I27
I29
I31
I33
I35
I36
I39
I41
I43
I46
I48
I51
I54
I57
I59
I62
I65
I67
I70
I73
I75
I77
I80
I82
I84
I85
I86
I87
I87
I88
I90
I91
I93
I94
I99
I99
I99
I99
I99
I99
I99
I99
I99
I99
I99
I99
I99
I99
I99
I99
I99
I99
I99
I99
I99
I99
I99
I99
I99
I99
I99
I99
I99
I99
I99
I99
I99
I99
I99
I99
I99
I99
I99
I99
I99
I99
I99
I99
I99
I99
I99
I99
I99
I99
I99
I99
I99
I99
I99
I99
I99
I99
I99
I99
I99
I99
I96
I99
I99
I99
I99
I99
I99
I99
I99
I99
I99
I99
I99
I99
I99
I99
I99
I99
I99
I99
I99
I99
I99
I99
I99
I99
I99
I99
I99
I99
I99
I99
I99
I99
I96
I90
I85
I80
I75
I70
I66
I62
I58
I55
I52
I48
I45
I42
I40
I37
I35
I33
I30
I28
I26
I25
I23
I21
I20
I19
I18
I16
I15
I14
I13
I12
I11
I11
I10
I9
I9
I8
I7
I7
I6
I6
I6
I6
I5
I5
I6
I6
I6
I7
I7
I8
I8
I9
I9
I10
I11
I12
I12
I14
I14
I16
I17
I18
I19
I20
I22
I23
I25
I26
I28
I30
I32
I34
I36
I38
I41
I43
I46
I48
I51
I54
I57
I60
I63
I66
I69
I72
I75
I78
I80
I83
I86
I88
I90
I91
I93
I94
I94
I94
I96
I99
I99
I99
I99
I99
I99
I99
I99
I99
I99
I99
I99
I99
I99
I99
I99
I99
I99
I99
I99
I99
I99
I99
I99
I99
I99
I99
I99
I99
I99
I99
I99
I99
I99
I99
I99
I99
I99
I99
I99
I99
I99
I99
I99
I99
I99
I99
I99
I99
I99
I99
I99
I99
I99
I99
I99
I99
I99
I99
I99
I99
I99
I99
I99
I99
I99
I99
I99
I99
I99
I99
I99
I99
I99
I99
I99
I99
I99
I99
I99
I99
I99
I99
I99
I99
I99
I99
I99
I99
I99
I99
I99
I99
I99
I99
I99
I99
I99
I97
I91
I86
I81
I77
I72
I67
I63
I59
I56
I53
I50
I46
I43
I41
I38
I36
I34
I31
I29
I28
I26
I24
I23
I21
I19
I18
I17
I16
I15
I14
I13
I12
I11
I10
I10
I9
I8
I8
I7
I7
I6
I6
I6
I5
I5
I5
I6
I6
I6
I7
I7
I8
I9
I9
I10
I11
I11
I12
I13
I14
I15
I16
I17
I18
I19
I21
I23
I24
I26
I28
I29
I31
I33
I35
I38
I40
I43
I45
I48
I51
I54
I57
I60
I63
I67
I70
I73
I77
I80
I83
I86
I89
I92
I94
I96
I99
I99
I99
I99
I99
I99
I99
I99
I99
I99
I99
I99
I99
I99
I99
I99
I99
I99
I99
I99
I99
I99
I99
I99
I99
I99
I99
I99
I99
I99
I99
I99
I99
I99
I99
I99
I99
I99
I99
I99
I99
I99
I99
I99
I99
I99
I99
I99
I99
I99
I99
I99
I99
I99
I99
I99
I99
I99
I99
I99
I99
I99
I99
I99
I99
I99
I99
I99
I99
I99
I99
I99
I99
I99
I99
I99
I99
I99
I99
I99
I99
I99
I99
I99
I99
I99
I99
I99
I99
I99
I99
I99
I99
I99
I99
I99
I99
I99
I99
I99
I99
I99
I99
I97
I92
I87
I82
I77
I73
I69
I65
I61
I57
I53
I50
I47
I45
I42
I39
I37
I35
I32
I30
I28
I26
I25
I23
I22
I20
I19
I18
I16
I15
I14
I13
I12
I12
I11
I10
I9
I9
I8
I7
I7
I7
I6
I6
I5
I5
I5
I5
I6
I6
I7
I7
I7
I8
I9
I9
I10
I11
I12
I12
I13
I14
I15
I16
I18
I19
I20
I22
I23
I25
I26
I28
I30
I32
I35
I37
I39
I42
I45
I47
I50
I53
I57
I60
I63
I67
I70
I74
I77
I81
I85
I89
I92
I95
I99
I99
I99
I99
I99
I99
I99
I99
I99
I99
I99
I99
I99
I99
I99
I99
I99
I99
I99
I99
I99
I99
I99
I99
I99
I99
I99
I99
I99
I99
I99
I99
I99
I99
I99
I99
I99
I99
I99
I99
I99
I99
I99
I99
I99
I99
I99
I99
I99
I99
I99
I99
I99
I99
I99
I99
I99
I99
I99
I99
I99
I99
I99
I99
I99
I99
I99
I99
I99
I99
I99
I99
I99
I99
I99
I96
I99
I99
I99
I99
I99
I99
I99
I99
I99
I99
I99
I99
I99
I99
I99
I99
I99
I99
I99
I99
I99
I99
I99
I99
I99
I99
I99
I99
I99
I96
I91
I87
I82
I78
I74
I70
I66
I62
I58
I55
I52
I48
I45
I43
I40
I38
I35
I33
I31
I29
I28
I26
I24
I23
I21
I19
I18
I17
I16
I15
I14
I13
I12
I11
I11
I10
I9
I9
I8
I7
I7
I7
I6
I6
I6
I5
I5
I6
I6
I6
I7
I7
I8
I8
I9
I10
I10
I11
I12
I13
I14
I15
I16
I17
I18
I19
I21
I23
I24
I26
I28
I29
I31
I34
I36
I38
I41
I43
I46
I50
I53
I56
I59
I63
I67
I70
I74
I78
I82
I86
I90
I94
I99
I99
I99
I99
I99
I99
I99
I99
I99
I99
I99
I99
I99
I99
I99
I99
I99
I99
I99
I99
I99
I99
I99
I99
I99
I99
I99
I99
I99
I99
I99
I99
I99
I99
I99
I99
I99
I99
I99
I99
I99
I99
I99
I99
I99
I99
I99
I99
I99
I99
I99
I99
I99
I99
I99
I99
I99
I99
I99
I99
I99
I99
I99
I99
I99
I99
I99
I99
I99
I99
I99
I99
I99
I99
I99
I99
I99
I90
I94
I99
I99
I99
I99
I99
I99
I99
I99
I99
I99
I99
I99
I99
I99
I99
I99
I99
I99
I99
I99
I99
I99
I99
I99
I99
I99
I99
I94
I90
I86
I82
I78
I74
I70
I67
I63
I59
I56
I53
I50
I46
I43
I41
I38
I36
I34
I32
I30
I28
I26
I25
I23
I22
I20
I19
I18
I17
I16
I14
I14
I12
I12
I11
I11
I10
I9
I9
I8
I8
I7
I7
I6
I6
I6
I5
I5
I6
I6
I6
I7
I7
I8
I9
I9
I10
I11
I11
I12
I13
I14
I15
I16
I18
I19
I20
I21
I23
I25
I26
I28
I30
I33
I35
I37
I40
I42
I45
I48
I52
I55
I58
I62
I66
I70
I74
I78
I82
I87
I91
I96
I99
I99
I99
I99
I99
I99
I99
I99
I99
I99
I99
I99
I99
I99
I99
I99
I99
I99
I99
I99
I99
I99
I99
I99
I99
I99
I99
I99
I99
I99
I99
I99
I99
I99
I99
I99
I99
I99
I99
I99
I99
I99
I99
I99
I99
I99
I99
I99
I99
I99
I99
I99
I99
I99
I99
I99
I99
I99
I99
I99
I99
I99
I99
I99
I99
I99
I99
I99
I99
I99
I99
I99
I99
I99
I99
I99
I99
I99
I85
I89
I92
I95
I99
I99
I99
I99
I99
I99
I99
I99
I99
I99
I99
I99
I99
I99
I99
I99
I99
I99
I99
I99
I99
I99
I99
I95
I92
I89
I85
I81
I77
I74
I70
I67
I63
I60
I57
I53
I50
I47
I45
I42
I39
I37
I35
I33
I31
I29
I27
I25
I24
I22
I21
I20
I19
I18
I17
I16
I15
I14
I13
I12
I12
I11
I10
I10
I9
I9
I8
I7
I7
I7
I6
I6
I6
I5
I6
I6
I6
I7
I7
I8
I9
I9
I10
I11
I12
I12
I13
I14
I16
I17
I18
I19
I21
I22
I24
I25
I27
I29
I31
I33
I36
I38
I41
I44
I47
I50
I53
I57
I61
I65
I69
I73
I77
I82
I87
I92
I97
I99
I99
I99
I99
I99
I99
I99
I99
I99
I99
I99
I99
I99
I99
I99
I99
I99
I99
I99
I99
I99
I99
I99
I99
I99
I99
I99
I99
I99
I99
I99
I99
I99
I99
I99
I99
I99
I99
I99
I99
I99
I99
I99
I99
I99
I99
I99
I99
I99
I99
I99
I99
I99
I99
I99
I99
I99
I99
I99
I99
I99
I99
I99
I99
I99
I99
I99
I99
I99
I99
I99
I99
I99
I99
I99
I99
I99
I99
I99
I80
I83
I86
I89
I92
I94
I96
I99
I99
I99
I99
I99
I99
I99
I99
I99
I99
I99
I99
I99
I99
I99
I99
I99
I96
I94
I92
I89
I86
I83
I80
I77
I73
I70
I67
I63
I60
I57
I54
I51
I48
I45
I43
I40
I38
I35
I33
I31
I30
I28
I27
I26
I24
I23
I22
I21
I19
I19
I18
I16
I16
I15
I14
I13
I12
I11
I11
I10
I9
I9
I8
I8
I7
I7
I6
I6
I6
I5
I6
I6
I7
I7
I7
I8
I9
I9
I10
I11
I12
I13
I14
I15
I16
I17
I18
I20
I21
I23
I24
I26
I28
I30
I32
I35
I37
I40
I43
I45
I49
I52
I56
I59
I63
I67
I72
I77
I81
I86
I91
I97
I99
I99
I99
I99
I99
I99
I99
I99
I99
I99
I99
I99
I99
I99
I99
I99
I99
I99
I99
I99
I99
I99
I99
I99
I99
I99
I99
I99
I99
I99
I99
I99
I99
I99
I99
I99
I99
I99
I99
I99
I99
I99
I99
I99
I99
I99
I99
I99
I99
I99
I99
I99
I99
I99
I99
I99
I99
I99
I99
I99
I99
I99
I99
I99
I99
I99
I99
I99
I99
I99
I99
I99
I99
I99
I99
I99
I99
I99
I99
I99
I75
I78
I80
I83
I86
I88
I90
I91
I93
I94
I94
I94
I94
I94
I94
I93
I93
I94
I94
I94
I94
I94
I93
I91
I90
I88
I86
I83
I80
I78
I75
I72
I69
I66
I63
I60
I57
I54
I51
I48
I46
I43
I42
I40
I38
I36
I35
I33
I32
I30
I28
I27
I26
I24
I23
I22
I21
I19
I18
I17
I16
I15
I14
I14
I13
I12
I11
I11
I10
I9
I9
I8
I7
I7
I7
I6
I6
I6
I6
I6
I7
I7
I8
I8
I9
I10
I11
I11
I12
I13
I14
I15
I16
I18
I19
I20
I22
I23
I25
I27
I29
I31
I33
I36
I38
I41
I44
I47
I50
I54
I58
I62
I66
I70
I75
I80
I85
I90
I96
I99
I99
I99
I99
I99
I99
I99
I99
I99
I99
I99
I99
I99
I99
I99
I99
I99
I99
I99
I99
I99
I99
I99
I99
I99
I99
I99
I99
I99
I99
I99
I99
I99
I99
I99
I99
I99
I99
I99
I99
I99
I99
I99
I99
I99
I99
I99
I99
I99
I99
I99
I99
I99
I99
I99
I99
I99
I99
I99
I99
I99
I99
I99
I99
I99
I99
I99
I99
I99
I99
I99
I99
I99
I99
I99
I99
I99
I99
I99
I99
I99
I70
I73
I75
I77
I80
I82
I84
I85
I86
I87
I87
I87
I87
I87
I87
I86
I86
I87
I87
I87
I87
I87
I86
I85
I84
I82
I80
I77
I75
I73
I70
I67
I65
I62
I59
I57
I55
I54
I52
I50
I48
I46
I45
I43
I41
I39
I37
I35
I33
I32
I30
I28
I27
I26
I24
I23
I22
I20
I19
I18
I17
I16
I15
I14
I13
I12
I12
I11
I10
I10
I9
I8
I8
I7
I7
I6
I6
I6
I6
I6
I7
I7
I8
I9
I9
I10
I11
I11
I12
I13
I14
I15
I16
I18
I19
I21
I22
I24
I26
I28
I29
I31
I34
I36
I39
I42
I45
I48
I52
I55
I60
I63
I68
I73
I78
I83
I89
I94
I99
I99
I99
I99
I99
I99
I99
I99
I99
I99
I99
I99
I99
I99
I99
I99
I99
I99
I99
I99
I99
I99
I99
I99
I99
I99
I99
I99
I99
I99
I99
I99
I99
I99
I99
I99
I99
I99
I99
I99
I99
I99
I99
I99
I99
I99
I99
I99
I99
I99
I99
I99
I99
I99
I99
I99
I99
I99
I99
I99
I99
I99
I99
I99
I99
I99
I99
I99
I99
I99
I99
I99
I99
I99
I99
I99
I99
I99
I99
I99
I99
I99
I66
I68
I70
I72
I74
I76
I77
I79
I80
I80
I81
I81
I81
I81
I80
I80
I80
I80
I81
I81
I81
I80
I80
I79
I77
I76
I74
I72
I70
I69
I68
I67
I66
I64
I63
I61
I60
I58
I56
I53
I52
I50
I47
I45
I43
I41
I39
I37
I35
I33
I32
I30
I28
I27
I25
I24
I23
I21
I20
I19
I18
I17
I16
I15
I14
I13
I12
I11
I11
I10
I9
I9
I8
I7
I7
I7
I6
I6
I6
I6
I7
I7
I8
I9
I9
I10
I11
I12
I12
I13
I14
I16
I17
I18
I19
I21
I23
I24
I26
I28
I30
I32
I35
I37
I40
I43
I46
I50
I53
I57
I61
I66
I70
I75
I80
I86
I92
I99
I99
I99
I99
I99
I99
I99
I99
I99
I99
I99
I99
I99
I99
I99
I99
I99
I99
I99
I99
I99
I99
I99
I99
I99
I99
I99
I99
I99
I99
I99
I99
I99
I99
I100
I99
I99
I99
I99
I99
I99
I99
I99
I99
I99
I99
I99
I99
I99
I99
I99
I99
I99
I99
I99
I99
I99
I99
I99
I99
I99
I99
I99
I99
I99
I99
I100
I99
I99
I99
I99
I99
I99
I99
I99
I99
I99
I99
I99
I99
I99
I99
I99
I62
I63
I66
I67
I69
I71
I72
I73
I74
I75
I75
I75
I75
I75
I75
I74
I74
I75
I75
I75
I75
I75
I75
I75
I75
I75
I75
I75
I75
I74
I73
I72
I71
I69
I67
I66
I63
I62
I59
I57
I55
I53
I50
I48
I46
I43
I41
I39
I37
I35
I33
I32
I30
I28
I27
I25
I24
I22
I21
I20
I19
I18
I16
I15
I14
I14
I12
I12
I11
I10
I10
I9
I9
I8
I7
I7
I6
I6
I6
I6
I7
I7
I8
I9
I9
I10
I11
I12
I12
I14
I15
I16
I17
I18
I20
I21
I23
I24
I26
I28
I31
I33
I35
I38
I41
I44
I47
I51
I55
I58
I63
I67
I72
I77
I83
I89
I95
I99
I99
I99
I99
I99
I99
I99
I99
I99
I99
I99
I99
I99
I99
I99
I99
I99
I99
I99
I99
I99
I99
I99
I99
I99
I99
I99
I99
I99
I99
I99
I99
I99
I99
I99
I99
I99
I99
I99
I99
I99
I99
I99
I99
I99
I99
I99
I99
I99
I99
I99
I99
I99
I99
I99
I99
I99
I99
I100
I100
I99
I100
I99
I99
I99
I99
I100
I100
I100
I99
I99
I99
I99
I99
I99
I99
I99
I99
I99
I99
I99
I99
I99
I58
I60
I61
I63
I64
I66
I67
I68
I69
I69
I70
I70
I70
I70
I69
I70
I72
I74
I76
I77
I79
I80
I80
I81
I81
I81
I81
I81
I80
I80
I79
I77
I76
I74
I72
I70
I68
I66
I63
I61
I58
I56
I53
I51
I48
I46
I44
I41
I39
I37
I35
I33
I31
I29
I28
I26
I25
I23
I22
I21
I19
I18
I17
I16
I15
I14
I13
I12
I11
I11
I10
I9
I9
I8
I7
I7
I7
I6
I6
I7
I7
I7
I8
I9
I9
I10
I11
I12
I13
I14
I15
I16
I17
I19
I20
I21
I23
I25
I27
I29
I31
I33
I36
I39
I42
I45
I48
I52
I56
I60
I64
I69
I74
I80
I86
I92
I99
I99
I99
I99
I99
I99
I99
I99
I99
I99
I99
I99
I99
I99
I99
I99
I99
I99
I99
I99
I99
I99
I99
I99
I99
I99
I99
I99
I99
I99
I99
I99
I99
I99
I99
I99
I99
I99
I99
I99
I99
I99
I99
I99
I99
I99
I99
I99
I99
I99
I99
I99
I99
I99
I99
I99
I99
I100
I100
I100
I100
I99
I100
I99
I99
I100
I100
I100
I100
I100
I99
I99
I99
I99
I99
I99
I99
I99
I99
I99
I99
I99
I99
I99
I54
I55
I57
I58
I60
I61
I62
I63
I64
I64
I65
I66
I68
I70
I73
I75
I77
I80
I82
I84
I85
I86
I87
I87
I87
I87
I87
I87
I87
I86
I85
I84
I82
I80
I77
I75
I73
I70
I67
I65
I62
I59
I57
I54
I51
I48
I46
I44
I41
I39
I37
I35
I33
I31
I29
I28
I26
I24
I23
I21
I20
I19
I18
I16
I16
I14
I14
I12
I12
I11
I10
I10
I9
I8
I8
I7
I7
I6
I6
I7
I7
I8
I8
I9
I10
I10
I11
I12
I13
I14
I15
I16
I18
I19
I20
I22
I24
I25
I27
I29
I32
I34
I37
I40
I43
I46
I49
I53
I57
I61
I66
I71
I76
I82
I88
I94
I99
I99
I99
I99
I99
I99
I99
I99
I99
I99
I99
I99
I99
I99
I99
I99
I99
I99
I99
I99
I99
I99
I99
I99
I99
I99
I99
I99
I99
I99
I99
I99
I99
I99
I99
I99
I99
I99
I99
I99
I100
I99
I99
I99
I99
I99
I99
I99
I99
I99
I99
I99
I99
I99
I99
I99
I99
I100
I100
I100
I100
I100
I100
I99
I99
I100
I100
I100
I100
I99
I99
I99
I99
I99
I99
I99
I99
I99
I99
I99
I99
I99
I99
I99
I50
I52
I53
I55
I56
I57
I58
I59
I62
I65
I67
I70
I73
I75
I78
I80
I83
I86
I88
I90
I91
I93
I94
I94
I94
I94
I94
I94
I94
I93
I91
I90
I88
I86
I83
I80
I78
I75
I72
I69
I66
I63
I60
I57
I54
I51
I48
I46
I43
I41
I39
I36
I35
I33
I31
I29
I27
I25
I24
I22
I21
I19
I18
I17
I16
I15
I14
I13
I12
I11
I11
I10
I9
I9
I8
I7
I7
I7
I7
I7
I7
I8
I8
I9
I10
I11
I11
I12
I13
I14
I15
I16
I18
I19
I21
I22
I24
I26
I28
I30
I32
I35
I37
I40
I43
I46
I50
I54
I58
I62
I67
I72
I77
I84
I90
I96
I99
I99
I99
I99
I99
I99
I99
I99
I99
I99
I99
I99
I99
I99
I99
I99
I99
I99
I99
I99
I99
I99
I99
I99
I99
I99
I99
I99
I99
I99
I99
I99
I99
I99
I99
I99
I99
I99
I99
I99
I99
I99
I100
I99
I99
I100
I99
I99
I99
I99
I99
I99
I99
I99
I99
I99
I100
I100
I100
I100
I99
I99
I99
I99
I99
I99
I100
I100
I100
I99
I99
I99
I99
I99
I99
I99
I99
I99
I99
I99
I99
I99
I99
I99
I47
I48
I50
I51
I54
I57
I60
I63
I66
I69
I72
I75
I78
I80
I83
I86
I89
I92
I94
I96
I99
I99
I99
I99
I99
I99
I99
I99
I99
I99
I99
I96
I94
I92
I89
I86
I83
I80
I77
I73
I70
I67
I63
I60
I57
I54
I51
I48
I46
I43
I41
I38
I36
I34
I32
I30
I28
I26
I25
I23
I22
I20
I19
I18
I17
I16
I14
I14
I12
I12
I11
I10
I9
I9
I8
I8
I7
I7
I7
I7
I8
I8
I9
I9
I10
I11
I11
I12
I13
I14
I15
I16
I18
I19
I21
I22
I24
I26
I28
I30
I32
I35
I38
I40
I44
I47
I51
I55
I59
I63
I68
I73
I79
I85
I91
I99
I99
I99
I99
I99
I99
I99
I99
I99
I99
I99
I99
I99
I99
I99
I99
I99
I99
I99
I99
I99
I99
I99
I99
I99
I99
I99
I99
I99
I99
I99
I99
I99
I99
I99
I99
I99
I99
I99
I99
I99
I99
I99
I99
I99
I100
I99
I100
I99
I99
I99
I99
I99
I99
I99
I99
I99
I100
I100
I100
I100
I100
I99
I99
I99
I99
I99
I99
I99
I99
I99
I99
I99
I99
I99
I99
I99
I99
I99
I99
I99
I99
I99
I99
I99
I45
I48
I51
I54
I57
I60
I63
I67
I70
I73
I77
I80
I83
I86
I89
I92
I95
I99
I99
I99
I99
I99
I99
I99
I99
I99
I99
I99
I99
I99
I99
I99
I99
I99
I95
I92
I89
I85
I81
I77
I74
I70
I67
I63
I60
I57
I54
I51
I48
I45
I43
I40
I38
I35
I33
I31
I29
I28
I26
I24
I23
I21
I19
I18
I17
I16
I15
I14
I13
I12
I11
I11
I10
I9
I9
I8
I7
I7
I7
I8
I8
I9
I9
I9
I10
I11
I12
I12
I13
I14
I16
I17
I18
I19
I21
I23
I24
I26
I28
I30
I33
I35
I38
I41
I44
I47
I51
I55
I59
I64
I69
I74
I80
I86
I93
I99
I99
I99
I99
I99
I99
I99
I99
I99
I99
I99
I99
I99
I99
I99
I99
I99
I99
I99
I99
I99
I99
I99
I99
I99
I99
I99
I99
I99
I99
I99
I99
I99
I99
I99
I99
I99
I99
I99
I99
I99
I99
I99
I99
I99
I99
I99
I99
I99
I99
I99
I99
I99
I99
I99
I99
I100
I100
I100
I99
I100
I100
I99
I99
I99
I99
I99
I99
I99
I99
I99
I99
I99
I99
I99
I99
I99
I99
I99
I99
I99
I99
I99
I99
I99
I47
I50
I53
I57
I60
I63
I67
I70
I74
I77
I81
I85
I89
I92
I95
I99
I99
I99
I99
I99
I99
I99
I99
I99
I99
I99
I99
I99
I99
I99
I99
I99
I99
I99
I99
I99
I94
I90
I86
I82
I78
I74
I70
I67
I63
I60
I57
I53
I50
I47
I45
I42
I39
I37
I35
I32
I30
I28
I26
I25
I23
I22
I20
I19
I18
I16
I15
I14
I13
I12
I12
I11
I10
I9
I9
I8
I7
I7
I8
I8
I9
I9
I10
I10
I11
I11
I12
I13
I14
I15
I16
I17
I18
I20
I21
I23
I24
I26
I28
I31
I33
I35
I38
I41
I44
I48
I52
I55
I60
I64
I69
I75
I80
I87
I94
I99
I99
I99
I99
I99
I99
I99
I99
I99
I99
I99
I99
I99
I99
I99
I99
I99
I99
I99
I99
I99
I99
I99
I99
I99
I99
I99
I99
I99
I99
I99
I99
I99
I99
I99
I99
I99
I99
I99
I99
I99
I100
I99
I99
I99
I99
I99
I99
I99
I99
I99
I99
I99
I99
I99
I99
I100
I100
I99
I99
I100
I100
I100
I99
I99
I99
I99
I99
I99
I99
I99
I99
I99
I99
I99
I99
I99
I99
I99
I99
I99
I99
I99
I99
I99
I50
I53
I56
I59
I63
I67
I70
I74
I78
I82
I86
I90
I94
I99
I99
I99
I99
I99
I99
I99
I99
I99
I99
I99
I99
I99
I99
I99
I99
I99
I99
I99
I99
I99
I99
I99
I99
I96
I91
I87
I82
I78
I74
I70
I67
I63
I59
I56
I53
I50
I46
I43
I41
I38
I36
I34
I31
I29
I28
I26
I24
I23
I21
I19
I18
I17
I16
I15
I14
I13
I12
I11
I10
I10
I9
I8
I8
I8
I8
I9
I9
I10
I10
I11
I11
I12
I12
I13
I14
I15
I16
I18
I19
I20
I22
I23
I25
I27
I29
I31
I33
I36
I38
I41
I45
I48
I52
I56
I60
I65
I70
I75
I81
I87
I94
I99
I99
I99
I99
I99
I99
I99
I99
I99
I99
I99
I99
I99
I99
I99
I99
I99
I99
I99
I99
I99
I99
I99
I100
I100
I99
I99
I99
I99
I99
I99
I99
I99
I99
I99
I99
I99
I99
I99
I99
I99
I99
I99
I99
I99
I99
I99
I99
I99
I99
I99
I99
I99
I99
I99
I99
I99
I99
I99
I99
I99
I100
I100
I100
I99
I99
I99
I99
I99
I99
I99
I99
I99
I99
I99
I99
I99
I99
I99
I99
I99
I99
I99
I99
I99
I52
I55
I58
I62
I66
I70
I74
I78
I82
I87
I91
I96
I99
I99
I99
I99
I99
I99
I99
I99
I99
I99
I99
I99
I99
I99
I99
I99
I99
I99
I99
I99
I99
I99
I99
I99
I99
I99
I97
I92
I87
I82
I78
I74
I70
I66
I62
I58
I55
I52
I48
I45
I42
I40
I37
I35
I33
I30
I28
I26
I25
I23
I21
I20
I19
I18
I16
I15
I14
I13
I12
I11
I11
I10
I9
I9
I8
I8
I9
I9
I10
I10
I11
I11
I12
I12
I13
I14
I14
I15
I16
I18
I19
I21
I22
I24
I26
I28
I29
I31
I34
I36
I39
I42
I45
I48
I52
I56
I60
I65
I70
I75
I81
I87
I94
I99
I99
I99
I99
I99
I99
I99
I99
I99
I99
I99
I99
I99
I99
I99
I99
I99
I100
I99
I99
I99
I99
I99
I99
I100
I100
I100
I99
I99
I99
I99
I99
I99
I99
I99
I99
I99
I99
I99
I99
I99
I99
I99
I99
I99
I99
I99
I99
I99
I99
I99
I99
I99
I99
I99
I99
I99
I99
I99
I99
I99
I99
I99
I99
I100
I99
I99
I99
I99
I99
I99
I99
I99
I99
I99
I99
I99
I99
I99
I99
I99
I99
I99
I99
I99
I53
I57
I61
I65
I69
I73
I77
I82
I87
I92
I97
I99
I99
I99
I99
I99
I99
I99
I99
I99
I99
I99
I99
I99
I99
I99
I99
I99
I99
I99
I99
I99
I99
I99
I99
I99
I99
I99
I99
I97
I92
I87
I82
I77
I73
I69
I65
I61
I57
I53
I50
I47
I44
I41
I38
I36
I33
I31
I29
I27
I25
I24
I22
I21
I19
I18
I17
I16
I14
I13
I12
I12
I11
I10
I9
I9
I8
I9
I9
I10
I10
I11
I11
I12
I13
I13
I14
I15
I15
I16
I17
I18
I19
I21
I23
I24
I26
I28
I30
I32
I35
I37
I40
I43
I46
I50
I53
I57
I61
I66
I70
I75
I81
I87
I94
I99
I99
I99
I99
I99
I99
I99
I99
I99
I99
I99
I99
I99
I99
I99
I99
I99
I99
I99
I99
I99
I99
I99
I99
I99
I100
I100
I100
I99
I99
I99
I99
I99
I99
I99
I99
I99
I99
I99
I99
I99
I99
I99
I99
I99
I99
I99
I99
I99
I99
I99
I99
I99
I99
I99
I99
I99
I99
I99
I99
I99
I99
I99
I99
I99
I99
I99
I99
I99
I99
I99
I99
I99
I99
I99
I99
I99
I99
I99
I99
I99
I99
I99
I99
I99
I56
I59
I63
I67
I72
I77
I81
I86
I91
I97
I99
I99
I99
I99
I99
I99
I99
I99
I99
I99
I99
I99
I99
I99
I99
I99
I99
I99
I99
I99
I99
I99
I99
I99
I99
I99
I99
I99
I99
I99
I97
I91
I86
I81
I77
I72
I67
I63
I59
I56
I52
I49
I45
I43
I40
I37
I35
I32
I30
I28
I26
I24
I23
I21
I20
I18
I17
I16
I15
I14
I13
I12
I11
I10
I10
I9
I9
I9
I10
I10
I11
I12
I12
I13
I13
I14
I15
I16
I16
I17
I18
I19
I20
I21
I23
I24
I26
I28
I31
I33
I35
I38
I41
I44
I47
I51
I55
I58
I63
I67
I72
I77
I83
I89
I95
I99
I99
I99
I99
I99
I99
I99
I99
I99
I99
I99
I99
I99
I99
I99
I99
I99
I99
I99
I99
I99
I99
I99
I99
I99
I99
I100
I100
I100
I99
I99
I99
I99
I99
I99
I99
I99
I99
I99
I99
I99
I99
I99
I99
I99
I100
I100
I99
I99
I99
I99
I99
I99
I99
I99
I99
I99
I99
I99
I99
I99
I99
I99
I99
I99
I99
I99
I99
I99
I99
I99
I99
I99
I99
I99
I99
I99
I99
I99
I99
I99
I99
I99
I99
I99
I58
I62
I66
I70
I75
I80
I85
I90
I96
I99
I99
I99
I99
I99
I99
I99
I99
I99
I99
I99
I99
I99
I99
I99
I99
I99
I99
I99
I99
I99
I99
I99
I99
I99
I99
I99
I99
I99
I99
I99
I99
I96
I90
I85
I80
I75
I70
I66
I62
I58
I54
I50
I47
I44
I41
I38
I36
I33
I31
I29
I27
I25
I23
I22
I20
I19
I18
I16
I15
I14
I13
I12
I11
I11
I10
I9
I9
I10
I10
I11
I12
I12
I13
I14
I14
I15
I16
I16
I17
I18
I19
I20
I21
I21
I23
I25
I27
I29
I31
I33
I36
I39
I42
I45
I48
I52
I56
I60
I64
I69
I74
I80
I86
I92
I99
I99
I99
I99
I99
I99
I99
I99
I99
I99
I99
I99
I99
I99
I99
I99
I99
I99
I99
I99
I99
I99
I99
I99
I100
I99
I99
I99
I100
I99
I100
I99
I99
I99
I99
I99
I99
I99
I99
I99
I99
I99
I99
I99
I99
I99
I99
I100
I99
I99
I99
I99
I99
I99
I99
I99
I99
I99
I99
I99
I99
I99
I99
I99
I99
I99
I99
I99
I99
I99
I99
I99
I99
I99
I99
I99
I99
I99
I99
I99
I99
I99
I99
I99
I99
I99
I60
I63
I68
I73
I78
I83
I89
I94
I99
I99
I99
I99
I99
I99
I99
I99
I99
I99
I99
I99
I99
I99
I99
I99
I99
I99
I99
I99
I99
I99
I99
I99
I99
I99
I99
I99
I99
I99
I99
I99
I99
I99
I94
I89
I83
I78
I73
I68
I63
I60
I55
I52
I48
I45
I42
I39
I36
I34
I31
I29
I28
I26
I24
I22
I21
I19
I18
I17
I16
I14
I13
I12
I12
I11
I10
I9
I10
I10
I11
I12
I12
I13
I14
I14
I15
I16
I17
I18
I18
I19
I20
I21
I22
I23
I24
I25
I27
I29
I32
I34
I37
I40
I43
I46
I49
I53
I57
I61
I66
I71
I76
I82
I88
I94
I99
I99
I99
I99
I99
I99
I99
I99
I99
I99
I99
I99
I99
I99
I99
I99
I99
I99
I99
I99
I99
I99
I99
I99
I99
I99
I99
I99
I99
I99
I100
I99
I99
I99
I99
I99
I99
I99
I99
I99
I99
I99
I99
I99
I99
I99
I99
I99
I99
I99
I99
I99
I99
I99
I99
I99
I99
I99
I99
I99
I99
I99
I99
I99
I99
I99
I99
I99
I99
I99
I100
I99
I99
I99
I99
I99
I99
I99
I99
I99
I99
I99
I99
I99
I99
I99
I61
I66
I70
I75
I80
I86
I92
I99
I99
I99
I99
I99
I99
I99
I99
I99
I99
I99
I99
I99
I99
I99
I99
I99
I99
I99
I99
I99
I99
I99
I99
I99
I99
I99
I99
I99
I99
I99
I99
I99
I99
I99
I99
I92
I86
I80
I75
I70
I66
I61
I57
I53
I50
I46
I43
I40
I37
I35
I32
I30
I28
I26
I24
I23
I21
I20
I18
I17
I16
I15
I14
I13
I12
I11
I10
I10
I10
I11
I12
I12
I13
I14
I14
I15
I16
I17
I18
I19
I19
I20
I21
I22
I23
I24
I25
I26
I28
I30
I32
I35
I37
I40
I43
I46
I50
I54
I58
I62
I67
I72
I77
I84
I90
I96
I99
I99
I99
I99
I99
I99
I99
I99
I99
I99
I99
I99
I99
I99
I99
I99
I99
I99
I99
I99
I99
I99
I99
I99
I99
I99
I99
I99
I99
I99
I100
I99
I100
I99
I99
I99
I99
I99
I99
I99
I99
I99
I99
I99
I99
I99
I99
I99
I99
I99
I99
I99
I99
I99
I99
I99
I99
I99
I99
I99
I99
I99
I99
I99
I99
I99
I99
I99
I99
I100
I100
I99
I99
I100
I99
I99
I99
I99
I99
I99
I99
I99
I99
I99
I99
I99
I63
I67
I72
I77
I83
I89
I95
I99
I99
I99
I99
I99
I99
I99
I99
I99
I99
I99
I99
I99
I99
I99
I99
I99
I99
I99
I99
I99
I99
I99
I99
I99
I99
I99
I99
I99
I99
I99
I99
I99
I99
I99
I99
I95
I89
I83
I77
I72
I67
I63
I58
I55
I51
I47
I44
I41
I38
I36
I33
I31
I29
I27
I25
I23
I22
I20
I19
I18
I16
I15
I14
I13
I12
I11
I11
I10
I11
I12
I12
I13
I14
I14
I15
I16
I17
I18
I19
I19
I21
I22
I23
I24
I25
I26
I27
I28
I29
I31
I32
I35
I38
I40
I44
I47
I51
I55
I59
I63
I68
I73
I79
I85
I91
I99
I99
I99
I99
I99
I99
I99
I99
I99
I99
I99
I99
I99
I99
I99
I99
I99
I99
I99
I99
I99
I99
I99
I99
I99
I99
I99
I99
I99
I99
I99
I100
I100
I100
I100
I99
I99
I99
I99
I99
I99
I99
I99
I99
I99
I99
I99
I99
I99
I99
I99
I99
I99
I99
I99
I99
I99
I99
I99
I99
I99
I99
I99
I99
I99
I99
I99
I99
I99
I99
I99
I99
I100
I100
I99
I99
I99
I99
I99
I99
I99
I99
I99
I99
I99
I99
I99
I64
I69
I74
I80
I86
I92
I99
I99
I99
I99
I99
I99
I99
I99
I99
I99
I99
I99
I99
I99
I99
I99
I99
I99
I99
I99
I99
I99
I99
I99
I99
I99
I99
I99
I99
I99
I99
I99
I99
I99
I99
I99
I99
I99
I92
I86
I80
I74
I69
I64
I60
I56
I52
I48
I45
I42
I39
I36
I34
I31
I29
I28
I26
I24
I22
I21
I19
I18
I16
I15
I14
I13
I12
I11
I11
I11
I11
I12
I13
I14
I14
I15
I16
I17
I18
I19
I20
I21
I22
I23
I24
I25
I26
I28
I29
I30
I31
I33
I34
I35
I38
I41
I44
I47
I51
I55
I59
I64
I69
I74
I80
I86
I93
I99
I99
I99
I99
I99
I99
I99
I99
I99
I99
I99
I99
I99
I99
I99
I99
I99
I99
I99
I99
I99
I99
I99
I99
I100
I99
I99
I99
I99
I99
I99
I99
I100
I100
I100
I100
I99
I99
I99
I99
I99
I99
I99
I99
I99
I99
I99
I99
I99
I99
I99
I99
I99
I99
I99
I99
I99
I99
I99
I99
I99
I99
I99
I99
I99
I99
I99
I99
I99
I99
I99
I99
I99
I100
I100
I99
I100
I99
I99
I99
I99
I99
I99
I99
I99
I99
I99
I66
I71
I76
I82
I88
I94
I99
I99
I99
I99
I99
I99
I99
I99
I99
I99
I99
I99
I99
I99
I99
I99
I99
I99
I99
I99
I99
I99
I99
I99
I99
I99
I99
I99
I99
I99
I99
I99
I99
I99
I99
I99
I99
I99
I94
I88
I82
I76
I71
I66
I61
I57
I53
I50
I46
I43
I40
I37
I35
I32
I30
I28
I26
I24
I23
I21
I19
I18
I17
I16
I14
I13
I12
I12
I11
I11
I12
I13
I14
I14
I15
I16
I17
I18
I19
I20
I21
I22
I23
I24
I25
I27
I28
I29
I31
I32
I33
I35
I36
I38
I39
I41
I44
I48
I52
I55
I60
I64
I69
I75
I80
I87
I94
I99
I99
I99
I99
I99
I99
I99
I99
I99
I99
I99
I99
I99
I99
I99
I99
I99
I99
I99
I99
I99
I99
I99
I99
I99
I100
I99
I99
I99
I100
I99
I99
I99
I100
I100
I100
I99
I99
I99
I99
I99
I99
I99
I99
I99
I99
I99
I99
I99
I99
I99
I99
I99
I99
I99
I99
I99
I99
I99
I99
I99
I99
I99
I99
I99
I99
I99
I99
I99
I99
I99
I99
I99
I99
I99
I99
I99
I99
I100
I99
I99
I99
I99
I99
I99
I99
I99
I67
I72
I77
I84
I90
I96
I99
I99
I99
I99
I99
I99
I99
I99
I99
I99
I99
I99
I99
I99
I99
I99
I99
I99
I99
I99
I99
I99
I99
I99
I99
I99
I99
I99
I99
I99
I99
I99
I99
I99
I99
I99
I99
I99
I96
I90
I84
I77
I72
I67
I63
I58
I55
I51
I47
I44
I41
I38
I35
I33
I31
I28
I26
I24
I23
I21
I20
I18
I17
I16
I15
I14
I12
I12
I11
I12
I13
I13
I14
I15
I16
I17
I18
I19
I20
I21
I22
I23
I24
I26
I27
I28
I29
I31
I33
I34
I35
I37
I38
I40
I42
I43
I45
I48
I52
I56
I60
I65
I70
I75
I81
I87
I94
I99
I99
I99
I99
I99
I99
I99
I99
I99
I99
I99
I99
I99
I99
I99
I99
I99
I99
I99
I99
I99
I99
I99
I99
I99
I99
I99
I99
I99
I99
I99
I99
I99
I99
I100
I100
I100
I99
I99
I99
I99
I99
I99
I99
I99
I99
I99
I99
I99
I99
I99
I99
I99
I99
I99
I99
I99
I99
I99
I99
I99
I99
I99
I99
I99
I99
I99
I99
I99
I99
I99
I99
I99
I99
I99
I99
I99
I99
I100
I100
I99
I99
I99
I99
I99
I99
I99
I69
I74
I80
I86
I92
I99
I99
I99
I99
I99
I99
I99
I99
I99
I99
I99
I99
I99
I99
I99
I99
I99
I99
I99
I99
I99
I99
I99
I99
I99
I99
I99
I99
I99
I99
I99
I99
I99
I99
I99
I99
I99
I99
I99
I99
I92
I86
I80
I74
I69
I64
I60
I56
I52
I48
I45
I42
I39
I36
I33
I31
I29
I27
I25
I23
I21
I20
I19
I17
I16
I15
I14
I13
I12
I12
I12
I13
I14
I15
I16
I17
I18
I19
I20
I21
I22
I23
I24
I26
I27
I28
I30
I31
I33
I35
I36
I38
I39
I41
I43
I45
I46
I48
I50
I52
I56
I60
I65
I70
I75
I81
I87
I94
I99
I99
I99
I99
I99
I99
I99
I99
I99
I99
I99
I99
I99
I99
I99
I99
I99
I100
I100
I100
I100
I99
I99
I99
I99
I99
I99
I99
I99
I99
I99
I99
I99
I99
I99
I100
I100
I100
I99
I99
I99
I99
I99
I99
I99
I99
I99
I99
I99
I99
I99
I99
I99
I99
I99
I99
I99
I99
I99
I99
I99
I99
I99
I99
I99
I99
I99
I99
I99
I99
I99
I99
I99
I99
I99
I99
I99
I99
I99
I99
I99
I99
I99
I99
I99
I99
I99
I71
I76
I82
I88
I94
I99
I99
I99
I99
I99
I99
I99
I99
I99
I99
I99
I99
I99
I99
I99
I99
I99
I99
I99
I99
I99
I99
I99
I99
I99
I99
I99
I99
I99
I99
I99
I99
I99
I99
I99
I99
I99
I99
I99
I99
I94
I88
I82
I76
I71
I66
I61
I57
I53
I49
I46
I43
I40
I37
I34
I32
I29
I27
I25
I24
I22
I20
I19
I18
I16
I15
I14
I13
I12
I12
I13
I14
I15
I16
I17
I18
I19
I20
I21
I22
I23
I24
I26
I27
I28
I30
I32
I33
I35
I36
I38
I40
I42
I43
I45
I47
I50
I52
I53
I56
I58
I60
I65
I70
I75
I81
I87
I94
I99
I99
I99
I99
I99
I99
I99
I99
I99
I99
I99
I99
I99
I99
I99
I99
I99
I100
I100
I100
I100
I99
I99
I99
I99
I99
I99
I99
I99
I99
I99
I99
I99
I99
I99
I99
I99
I99
I99
I99
I99
I100
I100
I99
I99
I99
I99
I99
I99
I99
I99
I99
I99
I99
I99
I99
I99
I99
I99
I99
I99
I99
I99
I99
I99
I99
I99
I99
I99
I99
I99
I99
I99
I99
I99
I99
I99
I99
I99
I99
I99
I99
I99
I99
I99
I99
I99
I72
I77
I84
I90
I96
I99
I99
I99
I99
I99
I99
I99
I99
I99
I99
I99
I99
I99
I99
I99
I99
I99
I99
I99
I99
I99
I99
I99
I99
I99
I99
I99
I99
I99
I99
I99
I99
I99
I99
I99
I99
I99
I99
I99
I99
I96
I90
I84
I77
I72
I67
I62
I58
I54
I50
I46
I43
I40
I37
I35
I32
I30
I28
I26
I24
I22
I21
I19
I18
I16
I15
I14
I13
I12
I13
I14
I15
I16
I16
I18
I19
I19
I21
I22
I23
I24
I26
I27
I28
I30
I32
I33
I35
I37
I39
I41
I43
I45
I46
I48
I50
I53
I55
I57
I59
I62
I63
I66
I70
I75
I81
I87
I94
I99
I99
I99
I99
I99
I99
I99
I99
I99
I99
I99
I99
I99
I99
I99
I99
I99
I99
I100
I100
I100
I99
I99
I99
I99
I99
I99
I99
I99
I99
I99
I99
I99
I99
I99
I99
I99
I99
I99
I99
I99
I100
I100
I100
I99
I99
I99
I99
I99
I99
I99
I99
I99
I99
I99
I99
I99
I99
I99
I99
I99
I99
I99
I99
I99
I99
I99
I99
I99
I99
I99
I99
I99
I99
I99
I99
I99
I99
I99
I99
I99
I99
I99
I99
I99
I99
I99
I73
I79
I85
I91
I99
I99
I99
I99
I99
I99
I99
I99
I99
I99
I99
I99
I99
I99
I99
I99
I99
I99
I99
I99
I100
I100
I100
I99
I99
I99
I99
I99
I99
I99
I99
I99
I99
I99
I99
I99
I99
I99
I99
I99
I99
I99
I91
I85
I79
I73
I68
I63
I59
I55
I51
I47
I44
I40
I38
I35
I32
I30
I28
I26
I24
I22
I21
I19
I18
I16
I15
I14
I13
I13
I14
I14
I15
I16
I17
I18
I19
I21
I22
I23
I24
I26
I27
I28
I30
I32
I33
I35
I37
I39
I41
I43
I45
I47
I50
I52
I53
I56
I58
I61
I63
I66
I68
I70
I72
I75
I80
I87
I94
I99
I99
I99
I99
I99
I99
I99
I99
I99
I99
I99
I99
I99
I99
I99
I99
I99
I99
I99
I99
I99
I99
I99
I99
I99
I99
I99
I99
I99
I99
I99
I99
I99
I99
I99
I99
I99
I99
I99
I99
I99
I99
I99
I99
I99
I99
I99
I99
I99
I99
I99
I99
I99
I99
I99
I99
I99
I99
I99
I99
I99
I99
I99
I99
I99
I99
I99
I99
I99
I99
I99
I99
I99
I99
I99
I99
I99
I99
I99
I99
I99
I99
I99
I99
I99
I99
I99
I74
I80
I86
I93
I99
I99
I99
I99
I99
I99
I99
I99
I99
I99
I99
I99
I99
I99
I99
I99
I99
I99
I100
I100
I99
I100
I100
I100
I99
I99
I99
I99
I99
I99
I99
I99
I99
I99
I99
I99
I99
I99
I99
I99
I99
I99
I93
I86
I80
I74
I69
I64
I59
I55
I51
I47
I44
I41
I38
I35
I33
I30
I28
I26
I24
I23
I21
I19
I18
I17
I16
I14
I13
I13
I14
I15
I16
I17
I18
I19
I20
I22
I23
I24
I26
I27
I28
I30
I32
I33
I35
I37
I39
I41
I43
I46
I48
I50
I53
I55
I57
I59
I62
I65
I67
I70
I73
I75
I77
I80
I82
I86
I93
I99
I99
I99
I99
I99
I99
I99
I99
I99
I99
I99
I99
I99
I99
I99
I99
I99
I99
I99
I99
I99
I99
I99
I99
I99
I99
I99
I99
I99
I99
I99
I99
I99
I99
I99
I99
I99
I99
I99
I99
I99
I99
I99
I99
I99
I99
I99
I99
I99
I99
I99
I99
I99
I99
I99
I99
I99
I99
I99
I99
I99
I99
I99
I99
I99
I99
I99
I99
I99
I99
I99
I99
I99
I99
I99
I99
I99
I99
I99
I99
I99
I99
I99
I99
I99
I99
I99
I75
I80
I87
I94
I99
I99
I99
I99
I99
I99
I99
I99
I99
I99
I99
I99
I99
I99
I99
I99
I99
I99
I99
I100
I100
I100
I100
I100
I99
I99
I99
I99
I99
I99
I99
I99
I99
I99
I99
I99
I99
I99
I99
I99
I99
I99
I94
I87
I80
I75
I69
I64
I60
I55
I52
I48
I44
I41
I38
I35
I33
I31
I28
I26
I24
I23
I21
I19
I18
I17
I16
I14
I13
I14
I15
I16
I17
I18
I19
I20
I21
I23
I24
I25
I27
I28
I30
I32
I33
I35
I37
I39
I41
I44
I46
I48
I51
I53
I56
I58
I61
I63
I66
I69
I72
I75
I78
I80
I83
I86
I88
I90
I91
I99
I99
I99
I99
I99
I99
I99
I99
I99
I99
I99
I99
I99
I99
I99
I99
I99
I99
I99
I99
I99
I99
I99
I99
I99
I99
I99
I99
I99
I99
I99
I99
I99
I99
I99
I99
I99
I99
I99
I99
I99
I99
I99
I99
I99
I99
I99
I99
I99
I100
I100
I100
I99
I99
I99
I99
I99
I99
I99
I99
I99
I99
I99
I99
I99
I99
I99
I99
I99
I99
I99
I99
I99
I99
I99
I99
I99
I99
I99
I99
I99
I99
I99
I99
I99
I99
I99
I75
I81
I87
I94
I99
I99
I99
I99
I99
I99
I99
I99
I99
I99
I99
I99
I99
I99
I99
I99
I99
I99
I100
I100
I100
I100
I100
I100
I99
I99
I99
I99
I99
I99
I99
I99
I99
I99
I99
I99
I99
I99
I99
I99
I99
I99
I94
I87
I81
I75
I70
I65
I60
I56
I52
I48
I45
I41
I38
I36
I33
I31
I28
I26
I24
I23
I21
I19
I18
I17
I16
I14
I14
I14
I15
I16
I18
I19
I20
I21
I22
I24
I25
I27
I28
I30
I32
I33
I35
I37
I39
I41
I44
I46
I48
I51
I54
I57
I59
I62
I65
I67
I70
I73
I77
I80
I83
I86
I89
I92
I94
I96
I99
I99
I99
I99
I99
I99
I99
I99
I99
I99
I99
I99
I99
I99
I99
I99
I99
I99
I99
I99
I99
I99
I99
I99
I99
I99
I99
I99
I99
I99
I99
I99
I99
I99
I99
I99
I99
I99
I99
I99
I99
I99
I99
I99
I99
I99
I99
I99
I100
I100
I100
I100
I100
I99
I99
I99
I99
I99
I99
I99
I99
I99
I99
I99
I99
I99
I99
I99
I99
I99
I99
I99
I99
I99
I99
I99
I99
I99
I99
I99
I99
I99
I99
I99
I99
I99
I99
I99
I75
I81
I87
I94
I99
I99
I99
I99
I99
I99
I99
I99
I99
I99
I99
I99
I99
I99
I99
I99
I99
I100
I100
I100
I100
I100
I100
I100
I100
I99
I99
I99
I99
I99
I99
I99
I99
I99
I99
I99
I99
I99
I99
I99
I99
I99
I94
I87
I81
I75
I70
I65
I60
I56
I52
I48
I45
I41
I38
I36
I33
I31
I28
I26
I24
I23
I21
I19
I18
I17
I16
I14
I14
I15
I16
I17
I18
I19
I21
I22
I23
I25
I26
I28
I29
I31
I33
I35
I37
I39
I41
I44
I46
I48
I51
I54
I57
I60
I63
I66
I69
I72
I75
I78
I81
I85
I89
I92
I95
I99
I99
I99
I99
I99
I99
I99
I99
I99
I99
I99
I99
I99
I99
I99
I99
I99
I99
I99
I99
I99
I99
I99
I99
I99
I99
I99
I99
I99
I99
I99
I99
I99
I99
I99
I99
I99
I99
I99
I99
I99
I99
I99
I99
I99
I99
I99
I99
I99
I99
I99
I99
I99
I99
I100
I99
I100
I99
I99
I99
I99
I99
I99
I99
I99
I99
I99
I99
I99
I99
I99
I99
I99
I99
I99
I99
I99
I99
I99
I99
I99
I99
I99
I99
I99
I99
I99
I99
I99
I99
I99
I75
I81
I87
I94
I99
I99
I99
I99
I99
I99
I99
I99
I99
I99
I99
I99
I99
I99
I99
I99
I99
I99
I99
I99
I100
I100
I100
I100
I99
I99
I99
I99
I99
I99
I99
I99
I99
I99
I99
I99
I99
I99
I99
I99
I99
I99
I94
I87
I81
I75
I70
I65
I60
I56
I52
I48
I45
I41
I38
I36
I33
I31
I28
I26
I24
I23
I21
I19
I18
I17
I16
I14
I14
I16
I16
I18
I19
I20
I21
I23
I24
I26
I28
I29
I31
I33
I35
I37
I39
I41
I44
I46
I48
I51
I54
I57
I60
I63
I67
I70
I73
I77
I80
I83
I86
I90
I94
I99
I99
I99
I99
I99
I99
I99
I99
I99
I99
I99
I99
I99
I99
I99
I99
I99
I99
I99
I99
I99
I99
I99
I99
I99
I99
I99
I99
I99
I99
I99
I99
I99
I99
I99
I99
I99
I99
I99
I99
I99
I99
I99
I99
I99
I99
I99
I99
I99
I99
I99
I99
I99
I99
I99
I99
I100
I99
I99
I99
I99
I99
I99
I99
I99
I99
I99
I99
I99
I99
I99
I99
I99
I99
I99
I99
I99
I99
I99
I99
I99
I99
I99
I99
I99
I99
I99
I99
I99
I99
I99
I99
I99
I75
I80
I87
I94
I99
I99
I99
I99
I99
I99
I99
I99
I99
I99
I99
I99
I99
I99
I99
I99
I99
I99
I99
I99
I100
I100
I100
I99
I99
I99
I99
I99
I99
I99
I99
I99
I99
I99
I99
I99
I99
I99
I99
I99
I99
I99
I94
I87
I80
I75
I69
I64
I60
I55
I52
I48
I44
I41
I38
I35
I33
I31
I28
I26
I24
I23
I21
I19
I18
I17
I16
I14
I15
I16
I17
I18
I19
I21
I22
I24
I25
I27
I29
I31
I33
I35
I36
I39
I41
I43
I46
I48
I51
I54
I57
I60
I63
I67
I70
I74
I77
I81
I85
I89
I92
I96
I99
I99
I99
I99
I99
I99
I99
I99
I99
I99
I99
I99
I99
I99
I99
I99
I99
I99
I99
I99
I99
I99
I99
I99
I99
I99
I99
I99
I99
I99
I99
I99
I99
I99
I99
I99
I99
I99
I99
I99
I99
I99
I99
I99
I99
I99
I99
I99
I99
I99
I99
I99
I99
I99
I100
I100
I99
I99
I99
I99
I99
I99
I99
I99
I99
I99
I99
I99
I99
I99
I99
I99
I99
I99
I99
I99
I99
I99
I99
I99
I99
I99
I99
I99
I99
I99
I99
I99
I99
I99
I99
I99
I99
I99
I74
I80
I86
I93
I99
I99
I99
I99
I99
I99
I99
I99
I99
I99
I99
I99
I99
I99
I99
I99
I99
I99
I99
I99
I100
I100
I99
I99
I99
I99
I99
I99
I99
I99
I99
I99
I99
I99
I99
I99
I99
I99
I99
I99
I99
I99
I93
I86
I80
I74
I69
I64
I59
I55
I51
I47
I44
I41
I38
I35
I33
I30
I28
I26
I24
I23
I21
I19
I18
I17
I16
I14
I16
I17
I18
I19
I20
I22
I23
I25
I26
I28
I30
I32
I34
I36
I38
I41
I43
I46
I48
I51
I54
I57
I60
I63
I67
I70
I74
I78
I82
I86
I90
I94
I99
I99
I99
I99
I99
I99
I99
I99
I99
I99
I99
I99
I99
I99
I99
I99
I99
I99
I99
I99
I99
I99
I99
I99
I99
I99
I99
I99
I99
I99
I99
I99
I99
I99
I99
I99
I99
I99
I99
I99
I99
I99
I99
I99
I99
I99
I99
I99
I99
I99
I99
I99
I99
I100
I100
I100
I100
I100
I99
I99
I99
I99
I99
I99
I99
I99
I99
I99
I99
I99
I99
I99
I99
I99
I99
I99
I99
I99
I99
I99
I99
I99
I99
I99
I99
I99
I99
I99
I99
I99
I99
I99
I99
I99
I99
I99
I73
I79
I85
I91
I99
I99
I99
I99
I99
I99
I99
I99
I99
I99
I99
I99
I99
I99
I99
I99
I99
I99
I99
I99
I99
I99
I99
I99
I99
I99
I99
I99
I99
I99
I99
I99
I99
I99
I99
I99
I99
I99
I99
I99
I99
I99
I91
I85
I79
I73
I68
I63
I59
I55
I51
I47
I44
I40
I38
I35
I32
I30
I28
I26
I24
I22
I21
I19
I18
I16
I15
I15
I16
I17
I18
I19
I21
I23
I24
I26
I28
I29
I31
I33
I35
I38
I40
I43
I45
I48
I51
I54
I57
I60
I63
I67
I70
I74
I78
I82
I87
I91
I96
I99
I99
I99
I99
I99
I99
I99
I99
I99
I99
I99
I99
I99
I99
I99
I99
I99
I99
I99
I99
I99
I99
I99
I99
I99
I99
I99
I99
I99
I99
I99
I99
I99
I99
I99
I99
I99
I99
I99
I99
I99
I99
I99
I99
I99
I99
I99
I99
I99
I99
I99
I99
I99
I99
I99
I100
I100
I100
I100
I99
I99
I99
I99
I99
I99
I99
I99
I99
I99
I99
I99
I99
I99
I99
I99
I99
I99
I99
I99
I99
I99
I99
I99
I99
I99
I99
I99
I99
I99
I99
I99
I99
I99
I99
I99
I99
I99
I72
I77
I84
I90
I96
I99
I99
I99
I99
I99
I99
I99
I99
I99
I99
I99
I99
I99
I99
I99
I99
I99
I99
I99
I99
I99
I99
I99
I99
I99
I99
I99
I99
I99
I99
I99
I99
I99
I99
I99
I99
I99
I99
I99
I99
I96
I90
I84
I77
I72
I67
I62
I58
I54
I50
I46
I43
I40
I37
I35
I32
I30
I28
I26
I24
I22
I21
I19
I18
I16
I15
I15
I16
I18
I19
I20
I22
I23
I25
I26
I28
I30
I32
I35
I37
I39
I42
I45
I47
I50
I53
I57
I60
I63
I67
I70
I74
I78
I82
I87
I92
I97
I99
I99
I99
I99
I99
I99
I99
I99
I99
I99
I99
I99
I99
I99
I99
I99
I99
I99
I99
I99
I99
I99
I99
I99
I99
I99
I99
I99
I99
I99
I99
I99
I99
I99
I99
I99
I99
I99
I99
I99
I99
I99
I99
I99
I99
I99
I99
I99
I99
I99
I99
I99
I99
I99
I99
I99
I99
I100
I99
I100
I100
I99
I99
I99
I99
I99
I99
I99
I99
I99
I99
I99
I99
I99
I99
I99
I99
I99
I99
I99
I99
I99
I99
I99
I99
I99
I99
I99
I99
I99
I99
I99
I99
I99
I99
I99
I99
I99
I71
I76
I82
I88
I94
I99
I99
I99
I99
I99
I99
I99
I99
I99
I99
I99
I99
I99
I99
I99
I99
I99
I99
I99
I99
I99
I99
I99
I99
I99
I99
I99
I99
I99
I99
I99
I99
I99
I99
I99
I99
I99
I99
I99
I99
I94
I88
I82
I76
I71
I66
I61
I57
I53
I49
I46
I43
I40
I37
I34
I32
I29
I27
I25
I24
I22
I20
I19
I18
I16
I15
I16
I17
I18
I19
I21
I23
I24
I26
I28
I29
I31
I34
I36
I38
I41
I43
I46
I50
I53
I56
I59
I63
I67
I70
I74
I78
I82
I87
I92
I97
I99
I99
I99
I99
I99
I99
I99
I99
I99
I99
I99
I99
I99
I99
I99
I99
I99
I99
I99
I99
I99
I99
I99
I99
I99
I99
I99
I99
I99
I99
I99
I99
I99
I99
I99
I99
I99
I99
I99
I99
I99
I99
I99
I99
I99
I99
I99
I99
I99
I99
I99
I99
I99
I99
I99
I99
I99
I99
I99
I99
I99
I99
I99
I99
I99
I99
I99
I99
I99
I99
I99
I99
I99
I99
I99
I99
I99
I99
I99
I99
I99
I99
I99
I99
I99
I99
I99
I99
I99
I99
I99
I99
I99
I99
I99
I99
I99
I99
I99
I69
I74
I80
I86
I92
I99
I99
I99
I99
I99
I99
I99
I99
I99
I99
I99
I99
I99
I99
I99
I99
I99
I99
I99
I99
I99
I99
I99
I99
I99
I99
I99
I99
I99
I99
I99
I99
I99
I99
I99
I99
I99
I99
I99
I99
I92
I86
I80
I74
I69
I64
I60
I56
I52
I48
I45
I42
I39
I36
I33
I31
I29
I27
I25
I23
I21
I20
I19
I17
I16
I15
I16
I18
I19
I20
I21
I23
I25
I26
I28
I30
I33
I35
I37
I40
I42
I45
I48
I52
I55
I58
I62
I66
I70
I74
I78
I82
I87
I92
I97
I99
I99
I99
I99
I99
I99
I99
I99
I99
I99
I99
I99
I99
I99
I99
I99
I99
I99
I99
I99
I99
I99
I99
I99
I99
I99
I99
I99
I99
I99
I99
I99
I99
I99
I99
I99
I99
I99
I99
I99
I99
I99
I99
I99
I99
I99
I99
I99
I99
I99
I99
I99
I99
I99
I99
I99
I99
I99
I99
I99
I99
I99
I99
I99
I99
I99
I99
I99
I99
I99
I99
I99
I99
I99
I99
I99
I99
I99
I99
I99
I99
I99
I99
I99
I99
I99
I99
I99
I99
I99
I99
I99
I99
I99
I99
I99
I99
I99
I99
I99
I67
I72
I77
I83
I89
I95
I99
I99
I99
I99
I99
I99
I99
I99
I99
I99
I99
I99
I99
I99
I99
I99
I99
I99
I99
I99
I99
I99
I99
I99
I99
I99
I99
I99
I99
I99
I99
I99
I99
I99
I99
I99
I99
I99
I95
I89
I83
I77
I72
I67
I63
I58
I55
I51
I47
I44
I41
I38
I35
I33
I31
I28
I26
I24
I23
I21
I20
I18
I17
I16
I16
I17
I18
I19
I21
I22
I24
I25
I27
I29
I31
I33
I36
I38
I41
I44
I47
I50
I53
I57
I61
I65
I69
I73
I77
I82
I87
I92
I97
I99
I99
I99
I99
I99
I99
I99
I99
I99
I99
I99
I99
I99
I99
I99
I99
I99
I99
I99
I99
I99
I99
I99
I99
I99
I99
I99
I99
I99
I99
I99
I99
I99
I99
I99
I99
I99
I99
I99
I99
I99
I99
I99
I99
I99
I99
I99
I99
I99
I99
I99
I99
I99
I99
I99
I99
I99
I99
I99
I99
I99
I99
I99
I99
I99
I99
I99
I99
I99
I99
I99
I99
I99
I99
I99
I99
I99
I99
I99
I99
I99
I99
I95
I92
I95
I99
I99
I99
I99
I99
I99
I99
I99
I99
I99
I99
I99
I99
I99
I99
I99
I66
I70
I75
I80
I86
I92
I99
I99
I99
I99
I99
I99
I99
I99
I99
I99
I99
I99
I99
I99
I99
I99
I99
I99
I99
I99
I99
I99
I99
I99
I99
I99
I99
I99
I99
I99
I99
I99
I99
I99
I99
I99
I99
I99
I92
I86
I80
I75
I70
I66
I61
I57
I53
I50
I46
I43
I40
I37
I35
I32
I30
I28
I26
I24
I23
I21
I19
I18
I17
I16
I17
I18
I19
I20
I21
I23
I24
I26
I28
I30
I32
I35
I37
I40
I43
I45
I49
I52
I56
I59
I63
I67
I72
I77
I81
I86
I91
I97
I99
I99
I99
I99
I99
I99
I99
I99
I99
I99
I99
I99
I99
I99
I99
I99
I99
I99
I99
I99
I99
I99
I99
I99
I99
I99
I99
I99
I99
I99
I99
I99
I99
I99
I99
I99
I99
I99
I99
I99
I99
I99
I99
I99
I99
I99
I99
I99
I99
I99
I99
I99
I99
I99
I99
I99
I99
I99
I99
I99
I99
I99
I99
I99
I99
I99
I99
I99
I99
I99
I99
I99
I99
I99
I99
I99
I99
I99
I99
I99
I99
I99
I99
I92
I86
I89
I92
I94
I96
I99
I99
I99
I99
I99
I99
I99
I99
I99
I99
I96
I94
I92
I63
I68
I73
I78
I83
I89
I94
I99
I99
I99
I99
I99
I99
I99
I99
I99
I99
I99
I99
I99
I99
I99
I99
I99
I99
I99
I99
I99
I99
I99
I99
I99
I99
I99
I99
I99
I99
I99
I99
I99
I99
I99
I99
I94
I89
I83
I78
I73
I68
I63
I60
I55
I52
I48
I45
I42
I39
I36
I34
I31
I29
I28
I26
I24
I22
I21
I19
I18
I16
I17
I18
I19
I20
I21
I22
I23
I25
I27
I29
I31
I33
I36
I38
I41
I44
I47
I50
I54
I58
I62
I66
I70
I75
I80
I85
I90
I96
I99
I99
I99
I99
I99
I99
I99
I99
I99
I99
I99
I99
I99
I99
I99
I99
I99
I99
I99
I99
I99
I99
I99
I99
I99
I99
I99
I99
I99
I99
I99
I99
I99
I99
I99
I99
I99
I99
I99
I99
I99
I99
I99
I99
I99
I99
I99
I99
I99
I99
I99
I99
I99
I99
I100
I99
I99
I99
I99
I99
I99
I100
I99
I99
I99
I99
I99
I99
I99
I99
I99
I99
I99
I99
I99
I99
I99
I99
I99
I99
I99
I99
I99
I94
I89
I83
I83
I86
I88
I90
I91
I93
I94
I94
I94
I94
I94
I94
I93
I91
I90
I88
I86
I62
I66
I70
I75
I80
I85
I90
I96
I99
I99
I99
I99
I99
I99
I99
I99
I99
I99
I99
I99
I99
I99
I99
I99
I99
I99
I99
I99
I99
I99
I99
I99
I99
I99
I99
I99
I99
I99
I99
I99
I99
I99
I96
I90
I85
I80
I75
I70
I66
I62
I58
I54
I50
I47
I44
I41
I38
I36
I33
I31
I29
I27
I25
I23
I22
I20
I19
I18
I18
I18
I19
I20
I21
I22
I23
I24
I26
I28
I29
I31
I34
I36
I39
I42
I45
I48
I52
I55
I60
I63
I68
I73
I78
I83
I89
I94
I99
I99
I99
I99
I99
I99
I99
I99
I99
I99
I99
I99
I99
I99
I99
I99
I99
I99
I99
I99
I99
I99
I99
I99
I99
I99
I99
I99
I99
I99
I99
I99
I99
I99
I99
I99
I99
I99
I99
I99
I99
I99
I99
I99
I99
I100
I99
I99
I99
I99
I99
I99
I99
I99
I99
I99
I99
I99
I99
I99
I100
I99
I100
I99
I99
I99
I99
I99
I99
I99
I99
I99
I99
I99
I99
I99
I99
I99
I99
I99
I99
I99
I99
I96
I90
I85
I80
I77
I80
I82
I84
I85
I86
I87
I87
I87
I87
I87
I87
I86
I85
I84
I82
I80
I59
I63
I67
I72
I77
I81
I86
I91
I97
I99
I99
I99
I99
I99
I99
I99
I99
I99
I99
I99
I99
I99
I99
I99
I99
I99
I99
I99
I99
I99
I99
I99
I99
I99
I99
I99
I99
I99
I99
I99
I99
I97
I91
I86
I81
I77
I72
I67
I63
I59
I56
I52
I49
I45
I43
I40
I37
I35
I32
I30
I28
I26
I24
I23
I21
I20
I18
I18
I19
I19
I20
I21
I22
I23
I24
I25
I26
I28
I30
I33
I35
I37
I40
I43
I46
I50
I53
I57
I61
I66
I70
I75
I80
I86
I92
I99
I99
I99
I99
I99
I99
I99
I99
I99
I99
I99
I99
I99
I99
I99
I99
I99
I99
I99
I99
I99
I99
I99
I99
I99
I99
I99
I99
I99
I99
I99
I99
I99
I99
I99
I99
I99
I99
I99
I99
I99
I99
I99
I99
I99
I99
I99
I99
I99
I99
I99
I99
I99
I99
I99
I99
I99
I99
I99
I99
I99
I100
I100
I99
I99
I99
I99
I99
I99
I99
I99
I99
I99
I99
I99
I99
I99
I99
I99
I99
I99
I99
I99
I99
I92
I86
I81
I77
I72
I74
I76
I77
I79
I80
I80
I81
I81
I81
I81
I80
I80
I79
I77
I76
I74
I57
I61
I65
I69
I73
I77
I82
I87
I92
I97
I99
I99
I99
I99
I99
I99
I99
I99
I99
I99
I99
I99
I99
I99
I99
I99
I99
I99
I99
I99
I99
I99
I99
I99
I99
I99
I99
I99
I99
I99
I97
I92
I87
I82
I77
I73
I69
I65
I61
I57
I53
I50
I47
I44
I41
I38
I36
I33
I31
I29
I27
I25
I24
I22
I21
I19
I18
I19
I19
I21
I22
I23
I24
I25
I26
I27
I28
I29
I31
I33
I36
I38
I41
I44
I47
I51
I55
I58
I63
I67
I72
I77
I83
I89
I95
I99
I99
I99
I99
I99
I99
I99
I99
I99
I99
I99
I99
I99
I99
I99
I99
I99
I99
I99
I99
I99
I99
I99
I99
I99
I99
I99
I99
I99
I99
I99
I99
I99
I99
I99
I99
I99
I99
I99
I99
I99
I99
I99
I99
I99
I99
I99
I99
I99
I99
I99
I99
I99
I99
I99
I99
I99
I99
I99
I99
I99
I100
I100
I99
I100
I99
I99
I99
I99
I99
I99
I99
I99
I99
I99
I99
I99
I99
I99
I99
I99
I99
I99
I95
I89
I83
I77
I73
I69
I69
I71
I72
I73
I74
I75
I75
I75
I75
I75
I75
I74
I73
I72
I71
I69
I55
I58
I62
I66
I70
I74
I78
I82
I87
I91
I96
I99
I99
I99
I99
I99
I99
I99
I99
I99
I99
I99
I99
I99
I99
I99
I99
I99
I99
I99
I99
I99
I99
I99
I99
I99
I99
I99
I99
I97
I92
I87
I82
I78
I74
I70
I66
I62
I58
I55
I52
I48
I45
I42
I40
I37
I35
I33
I30
I28
I26
I25
I23
I21
I20
I19
I19
I20
I21
I22
I23
I24
I25
I26
I28
I29
I30
I31
I32
I35
I37
I40
I43
I45
I49
I52
I56
I60
I64
I69
I74
I80
I86
I92
I99
I99
I99
I99
I99
I99
I99
I99
I99
I99
I99
I99
I99
I99
I99
I99
I99
I99
I99
I99
I99
I99
I99
I99
I99
I99
I99
I99
I100
I99
I99
I99
I99
I99
I99
I99
I99
I99
I99
I99
I99
I99
I99
I99
I99
I99
I99
I99
I99
I99
I99
I99
I99
I99
I99
I99
I99
I99
I99
I99
I99
I99
I99
I99
I100
I100
I99
I99
I99
I99
I99
I99
I99
I99
I99
I99
I99
I99
I99
I99
I99
I99
I99
I99
I94
I87
I81
I75
I70
I66
I64
I66
I67
I68
I69
I69
I70
I70
I70
I70
I69
I69
I68
I67
I66
I64
I53
I56
I59
I63
I67
I70
I74
I78
I82
I86
I91
I97
I99
I99
I99
I99
I99
I99
I99
I99
I99
I99
I99
I99
I99
I99
I99
I99
I99
I99
I99
I99
I99
I99
I99
I99
I99
I99
I97
I92
I87
I82
I78
I74
I70
I67
I63
I59
I56
I53
I50
I46
I43
I41
I38
I36
I34
I31
I29
I28
I26
I24
I23
I21
I19
I19
I20
I21
I22
I23
I24
I25
I27
I28
I29
I31
I32
I33
I35
I36
I38
I41
I44
I47
I50
I54
I58
I62
I66
I71
I76
I82
I88
I94
I99
I99
I99
I99
I99
I99
I99
I99
I99
I99
I99
I99
I99
I99
I99
I99
I99
I99
I99
I99
I99
I99
I99
I99
I99
I99
I99
I99
I100
I100
I100
I100
I100
I99
I99
I100
I100
I100
I99
I99
I99
I99
I99
I99
I99
I99
I99
I99
I99
I99
I99
I99
I99
I99
I99
I99
I99
I99
I99
I99
I99
I99
I99
I99
I100
I100
I100
I99
I99
I99
I99
I99
I99
I99
I99
I99
I99
I99
I99
I99
I99
I99
I99
I99
I94
I87
I81
I75
I70
I65
I60
I61
I62
I63
I64
I64
I65
I65
I65
I65
I64
I64
I63
I62
I61
I60
I50
I53
I57
I60
I63
I67
I70
I74
I77
I82
I87
I92
I97
I99
I99
I99
I99
I99
I99
I99
I99
I99
I99
I99
I99
I99
I99
I99
I99
I99
I99
I99
I99
I99
I99
I99
I99
I97
I92
I87
I82
I78
I74
I70
I67
I63
I60
I57
I53
I50
I47
I45
I42
I39
I37
I35
I32
I30
I28
I26
I25
I23
I22
I20
I19
I19
I21
I22
I23
I24
I26
I27
I28
I29
I31
I33
I34
I35
I37
I38
I40
I42
I45
I48
I52
I55
I60
I63
I68
I73
I78
I84
I90
I96
I99
I99
I99
I99
I99
I99
I99
I99
I99
I99
I99
I99
I99
I99
I99
I99
I99
I99
I99
I99
I99
I99
I100
I100
I100
I100
I100
I100
I100
I100
I100
I100
I100
I100
I100
I100
I100
I99
I99
I99
I99
I99
I99
I99
I99
I99
I99
I99
I99
I99
I99
I99
I99
I99
I99
I99
I99
I99
I99
I99
I99
I99
I99
I99
I99
I100
I99
I99
I99
I99
I99
I99
I99
I99
I99
I99
I99
I99
I99
I99
I99
I99
I99
I99
I94
I87
I81
I75
I70
I65
I60
I57
I58
I59
I59
I60
I60
I60
I60
I60
I60
I59
I59
I58
I57
I56
I53
I55
I57
I59
I62
I65
I67
I70
I74
I78
I82
I87
I91
I96
I99
I99
I99
I99
I99
I99
I99
I99
I99
I99
I99
I99
I99
I99
I99
I99
I99
I99
I99
I99
I99
I99
I96
I91
I87
I82
I78
I74
I70
I67
I63
I60
I57
I54
I51
I48
I45
I43
I40
I38
I35
I33
I31
I29
I28
I26
I24
I23
I21
I19
I19
I21
I22
I23
I24
I26
I27
I28
I30
I31
I33
I35
I36
I38
I39
I41
I42
I44
I46
I50
I53
I57
I61
I66
I70
I75
I80
I86
I92
I99
I99
I99
I99
I99
I99
I99
I99
I99
I99
I99
I99
I99
I99
I99
I99
I99
I99
I99
I99
I99
I99
I100
I100
I100
I100
I100
I100
I100
I100
I100
I100
I100
I100
I100
I100
I100
I100
I100
I99
I99
I99
I99
I99
I99
I99
I99
I99
I99
I99
I99
I99
I99
I99
I99
I99
I99
I99
I99
I99
I99
I99
I99
I99
I99
I99
I99
I99
I99
I99
I99
I99
I99
I99
I99
I99
I99
I99
I99
I99
I99
I99
I99
I99
I99
I94
I87
I80
I75
I69
I64
I60
I55
I54
I55
I55
I55
I56
I56
I56
I56
I55
I55
I55
I54
I53
I52
I57
I58
I60
I63
I66
I69
I72
I75
I78
I80
I83
I86
I89
I92
I94
I99
I99
I99
I99
I99
I99
I99
I99
I99
I99
I99
I99
I99
I99
I99
I99
I99
I99
I99
I99
I94
I90
I86
I82
I78
I74
I70
I67
I63
I60
I57
I54
I51
I48
I46
I43
I41
I38
I36
I34
I32
I30
I28
I26
I25
I23
I22
I20
I19
I20
I22
I23
I24
I26
I27
I28
I30
I32
I33
I35
I36
I38
I40
I42
I43
I45
I47
I49
I51
I55
I58
I63
I67
I72
I77
I83
I89
I95
I99
I99
I99
I99
I99
I99
I99
I99
I99
I99
I99
I99
I99
I99
I99
I99
I99
I99
I99
I99
I100
I100
I100
I100
I99
I100
I100
I100
I99
I99
I100
I100
I100
I100
I100
I100
I100
I100
I99
I99
I99
I99
I99
I99
I99
I99
I99
I99
I99
I99
I99
I99
I99
I99
I99
I99
I99
I99
I99
I99
I99
I99
I99
I99
I99
I99
I99
I99
I99
I99
I99
I99
I99
I99
I99
I99
I99
I99
I99
I99
I99
I99
I99
I99
I99
I93
I86
I80
I75
I70
I66
I61
I57
I53
I51
I51
I52
I52
I52
I52
I52
I52
I51
I51
I50
I49
I48
I61
I63
I64
I67
I70
I73
I77
I80
I83
I86
I89
I92
I95
I99
I99
I99
I99
I99
I99
I99
I99
I99
I99
I99
I99
I99
I99
I99
I99
I99
I99
I99
I99
I95
I92
I89
I85
I81
I77
I74
I70
I67
I63
I60
I57
I54
I51
I48
I46
I43
I41
I39
I36
I35
I33
I31
I29
I27
I25
I24
I22
I21
I19
I20
I21
I23
I24
I25
I27
I28
I30
I32
I33
I35
I37
I39
I41
I43
I45
I46
I48
I50
I52
I54
I56
I60
I64
I69
I74
I80
I86
I92
I99
I99
I99
I99
I99
I99
I99
I99
I99
I99
I99
I99
I99
I99
I99
I99
I99
I99
I99
I99
I100
I100
I100
I99
I100
I100
I100
I100
I100
I100
I99
I99
I99
I99
I100
I99
I100
I100
I100
I99
I99
I99
I99
I99
I99
I99
I99
I99
I99
I99
I99
I99
I99
I99
I99
I99
I99
I99
I99
I99
I99
I99
I99
I99
I99
I99
I99
I99
I99
I99
I99
I99
I99
I99
I99
I99
I99
I99
I99
I99
I99
I99
I99
I99
I99
I99
I95
I89
I83
I77
I72
I67
I63
I58
I55
I51
I47
I48
I48
I48
I48
I48
I48
I47
I47
I46
I46
I45
I66
I67
I69
I71
I74
I77
I81
I85
I89
I92
I95
I99
I99
I99
I99
I99
I99
I99
I99
I99
I99
I99
I99
I99
I99
I99
I99
I99
I99
I99
I99
I99
I99
I94
I90
I86
I82
I78
I74
I70
I67
I63
I60
I57
I54
I51
I48
I46
I44
I41
I39
I37
I35
I33
I31
I29
I28
I26
I24
I23
I21
I20
I20
I21
I22
I24
I25
I27
I28
I30
I32
I33
I35
I37
I39
I41
I43
I45
I47
I50
I52
I53
I56
I58
I60
I61
I66
I71
I76
I82
I88
I94
I99
I99
I99
I99
I99
I99
I99
I99
I99
I99
I99
I99
I99
I99
I99
I99
I99
I99
I99
I100
I100
I99
I99
I99
I99
I100
I100
I100
I99
I100
I100
I100
I99
I99
I99
I99
I100
I99
I100
I99
I99
I99
I99
I99
I99
I99
I99
I99
I99
I99
I99
I99
I99
I99
I99
I99
I99
I99
I99
I99
I99
I99
I99
I99
I99
I99
I99
I99
I99
I99
I99
I99
I99
I99
I99
I99
I99
I99
I99
I99
I99
I99
I99
I99
I99
I99
I99
I92
I86
I80
I74
I69
I64
I60
I56
I52
I48
I45
I45
I45
I45
I45
I44
I44
I44
I43
I43
I42
I70
I72
I74
I76
I78
I82
I86
I90
I94
I99
I99
I99
I99
I99
I99
I99
I99
I99
I99
I99
I99
I99
I99
I99
I99
I99
I99
I99
I99
I99
I99
I99
I99
I99
I96
I91
I87
I82
I78
I74
I70
I66
I62
I58
I55
I52
I48
I45
I42
I40
I37
I35
I33
I31
I29
I28
I26
I25
I23
I22
I21
I19
I21
I22
I23
I25
I26
I28
I29
I31
I33
I35
I37
I39
I41
I43
I46
I48
I50
I53
I55
I57
I59
I62
I63
I66
I67
I72
I77
I84
I90
I96
I99
I99
I99
I99
I99
I99
I99
I99
I99
I99
I99
I99
I99
I99
I99
I99
I99
I99
I100
I100
I100
I100
I99
I99
I99
I99
I99
I100
I100
I99
I99
I100
I100
I99
I99
I99
I99
I100
I100
I100
I99
I99
I99
I99
I99
I99
I99
I99
I99
I99
I99
I99
I99
I99
I99
I99
I99
I99
I99
I99
I99
I99
I99
I100
I100
I99
I99
I99
I99
I99
I99
I99
I99
I99
I99
I99
I99
I99
I99
I99
I99
I99
I99
I99
I99
I99
I99
I94
I88
I82
I76
I71
I66
I61
I57
I53
I49
I46
I43
I41
I41
I41
I41
I41
I40
I40
I40
I39
I75
I77
I80
I82
I84
I87
I91
I96
I99
I99
I99
I99
I99
I99
I99
I99
I99
I99
I99
I99
I99
I99
I99
I99
I99
I99
I99
I99
I99
I99
I99
I99
I99
I99
I99
I97
I92
I87
I82
I77
I73
I69
I65
I61
I57
I53
I50
I47
I44
I41
I38
I36
I33
I31
I29
I27
I25
I24
I22
I21
I20
I20
I21
I23
I24
I26
I28
I29
I31
I33
I35
I37
I39
I41
I44
I46
I48
I51
I53
I56
I58
I61
I63
I66
I68
I70
I72
I74
I79
I85
I91
I99
I99
I99
I99
I99
I99
I99
I99
I99
I99
I99
I99
I99
I99
I99
I99
I99
I99
I99
I100
I100
I100
I99
I99
I99
I99
I99
I99
I99
I99
I100
I99
I99
I99
I100
I99
I99
I99
I100
I100
I100
I100
I99
I99
I99
I99
I99
I99
I99
I99
I99
I99
I99
I99
I99
I99
I99
I99
I99
I99
I99
I99
I99
I100
I100
I100
I99
I99
I99
I99
I99
I99
I99
I99
I99
I99
I99
I99
I99
I99
I99
I99
I99
I99
I99
I99
I99
I99
I96
I90
I84
I77
I72
I67
I62
I58
I54
I50
I46
I43
I40
I38
I38
I38
I38
I38
I37
I37
I36
I80
I83
I86
I88
I90
I92
I97
I99
I99
I99
I99
I99
I99
I99
I99
I99
I99
I99
I99
I99
I99
I99
I99
I99
I99
I99
I99
I99
I99
I99
I99
I99
I99
I99
I99
I99
I97
I91
I86
I81
I77
I72
I67
I63
I59
I56
I52
I49
I45
I43
I40
I37
I35
I32
I30
I28
I26
I24
I23
I21
I20
I21
I22
I24
I25
I27
I29
I31
I33
I35
I36
I39
I41
I43
I46
I48
I51
I54
I57
I59
I62
I65
I67
I70
I73
I75
I77
I80
I83
I86
I93
I99
I99
I99
I99
I99
I99
I99
I99
I99
I99
I99
I99
I99
I99
I99
I99
I99
I99
I99
I100
I100
I99
I99
I99
I99
I100
I99
I99
I99
I99
I99
I99
I99
I99
I99
I99
I99
I99
I99
I100
I100
I100
I100
I99
I99
I99
I99
I99
I99
I99
I99
I99
I99
I99
I99
I99
I99
I99
I99
I99
I99
I99
I100
I100
I100
I99
I99
I100
I99
I99
I99
I99
I99
I99
I99
I99
I99
I99
I99
I99
I99
I99
I99
I99
I99
I99
I99
I99
I99
I91
I85
I79
I73
I68
I63
I59
I55
I51
I47
I44
I40
I38
I36
I35
I35
I35
I35
I34
I33
I86
I89
I92
I94
I96
I99
I99
I99
I99
I99
I99
I99
I99
I99
I99
I99
I99
I99
I99
I99
I99
I99
I99
I99
I99
I99
I99
I99
I99
I99
I99
I99
I99
I99
I99
I99
I99
I96
I90
I85
I80
I75
I70
I66
I62
I58
I54
I50
I47
I44
I41
I38
I36
I33
I31
I29
I27
I25
I23
I22
I20
I22
I23
I25
I26
I28
I30
I32
I34
I36
I38
I41
I43
I46
I48
I51
I54
I57
I60
I63
I66
I69
I72
I75
I78
I80
I83
I86
I89
I92
I95
I99
I99
I99
I99
I99
I99
I99
I99
I99
I99
I99
I99
I99
I99
I99
I99
I99
I99
I100
I100
I99
I99
I99
I99
I99
I99
I99
I99
I100
I100
I100
I99
I99
I99
I99
I99
I99
I99
I99
I99
I100
I99
I100
I99
I99
I99
I99
I99
I99
I99
I99
I99
I99
I99
I99
I99
I99
I99
I99
I99
I99
I99
I99
I100
I100
I99
I99
I100
I100
I100
I99
I99
I99
I99
I99
I99
I99
I99
I99
I99
I99
I99
I99
I99
I99
I99
I99
I99
I99
I93
I86
I80
I74
I69
I64
I59
I55
I51
I47
I44
I41
I38
I35
I33
I33
I32
I32
I32
I31
I92
I95
I99
I99
I99
I99
I99
I99
I99
I99
I99
I99
I99
I99
I99
I99
I99
I99
I99
I99
I99
I99
I99
I99
I99
I99
I99
I99
I99
I99
I99
I99
I99
I99
I99
I99
I99
I99
I94
I89
I83
I78
I73
I68
I63
I60
I55
I52
I48
I45
I42
I39
I36
I34
I31
I29
I28
I26
I24
I22
I21
I23
I24
I26
I28
I29
I31
I33
I35
I38
I40
I43
I45
I48
I51
I54
I57
I60
I63
I67
I70
I73
I77
I80
I83
I86
I89
I92
I94
I99
I99
I99
I99
I99
I99
I99
I99
I99
I99
I99
I99
I99
I99
I99
I99
I99
I99
I99
I99
I100
I100
I99
I99
I99
I99
I99
I99
I99
I100
I100
I99
I99
I99
I99
I99
I99
I99
I99
I99
I99
I99
I100
I99
I100
I100
I99
I99
I99
I99
I99
I99
I99
I99
I99
I99
I99
I99
I99
I99
I99
I99
I99
I99
I99
I99
I99
I99
I100
I100
I100
I100
I100
I99
I99
I99
I99
I99
I99
I99
I99
I99
I99
I99
I99
I99
I99
I99
I99
I99
I99
I94
I87
I80
I75
I69
I64
I60
I55
I52
I48
I44
I41
I38
I35
I33
I31
I30
I30
I29
I29
I99
I99
I99
I99
I99
I99
I99
I99
I99
I99
I99
I99
I99
I99
I99
I99
I99
I99
I99
I99
I99
I99
I99
I99
I99
I99
I99
I99
I99
I99
I99
I99
I99
I99
I99
I99
I99
I99
I99
I92
I86
I80
I75
I70
I66
I61
I57
I53
I50
I46
I43
I40
I37
I35
I32
I30
I28
I26
I24
I23
I22
I23
I25
I26
I28
I30
I32
I35
I37
I39
I42
I45
I47
I50
I53
I57
I60
I63
I67
I70
I74
I77
I81
I85
I89
I92
I95
I99
I99
I99
I99
I99
I99
I99
I99
I99
I99
I99
I99
I99
I99
I99
I99
I99
I99
I99
I99
I99
I100
I100
I99
I99
I99
I99
I99
I99
I99
I99
I99
I99
I100
I99
I99
I99
I99
I99
I99
I99
I99
I99
I99
I99
I99
I99
I100
I99
I99
I99
I99
I99
I99
I99
I99
I99
I99
I99
I99
I99
I99
I99
I99
I99
I99
I99
I99
I99
I99
I99
I99
I100
I100
I100
I99
I99
I99
I99
I99
I99
I99
I99
I99
I99
I99
I99
I99
I99
I99
I99
I99
I99
I94
I87
I81
I75
I70
I65
I60
I56
I52
I48
I45
I41
I38
I36
I33
I31
I28
I28
I27
I27
I99
I99
I99
I99
I99
I99
I99
I99
I99
I99
I99
I99
I99
I99
I99
I99
I99
I99
I99
I99
I99
I99
I99
I99
I99
I99
I99
I99
I99
I99
I99
I99
I99
I99
I99
I99
I99
I99
I99
I95
I89
I83
I77
I72
I67
I63
I58
I55
I51
I47
I44
I41
I38
I35
I33
I31
I28
I26
I24
I23
I23
I24
I26
I28
I29
I31
I34
I36
I38
I41
I43
I46
I50
I53
I56
I59
I63
I67
I70
I74
I78
I82
I86
I90
I94
I99
I99
I99
I99
I99
I99
I99
I99
I99
I99
I99
I99
I99
I99
I99
I99
I99
I99
I99
I99
I99
I99
I99
I100
I100
I99
I99
I99
I99
I99
I99
I99
I99
I99
I99
I100
I99
I99
I99
I99
I99
I99
I99
I99
I99
I99
I99
I99
I99
I100
I99
I99
I99
I99
I99
I99
I99
I99
I99
I99
I99
I99
I99
I99
I99
I99
I99
I99
I99
I99
I99
I100
I100
I99
I99
I99
I100
I100
I99
I99
I99
I99
I99
I99
I99
I99
I99
I99
I99
I99
I99
I99
I99
I99
I99
I94
I87
I81
I75
I70
I65
I60
I56
I52
I48
I45
I41
I38
I36
I33
I31
I28
I26
I25
I25
I99
I99
I99
I99
I99
I99
I99
I99
I99
I99
I99
I99
I99
I99
I99
I99
I99
I99
I99
I99
I99
I99
I99
I99
I99
I99
I99
I99
I99
I99
I99
I99
I99
I99
I99
I99
I99
I99
I99
I99
I92
I86
I80
I74
I69
I64
I60
I56
I52
I48
I45
I42
I39
I36
I33
I31
I29
I27
I25
I23
I23
I25
I26
I28
I30
I33
I35
I37
I40
I42
I45
I48
I52
I55
I58
I62
I66
I70
I74
I78
I82
I87
I91
I96
I99
I99
I99
I99
I99
I99
I99
I99
I99
I99
I99
I99
I99
I99
I99
I99
I99
I99
I99
I99
I99
I99
I99
I99
I100
I99
I99
I99
I99
I100
I99
I99
I99
I99
I99
I99
I99
I99
I99
I99
I99
I99
I99
I99
I99
I99
I99
I99
I99
I100
I100
I100
I100
I100
I100
I100
I99
I99
I99
I99
I99
I99
I99
I99
I99
I99
I99
I99
I99
I99
I99
I99
I99
I99
I99
I100
I99
I99
I100
I99
I99
I99
I99
I99
I99
I99
I99
I99
I99
I99
I99
I99
I99
I99
I99
I99
I94
I87
I81
I75
I70
I65
I60
I56
I52
I48
I45
I41
I38
I36
I33
I31
I28
I26
I24
I23
I99
I99
I99
I99
I99
I99
I99
I99
I99
I99
I99
I99
I99
I99
I99
I99
I99
I99
I99
I99
I99
I99
I99
I99
I99
I99
I99
I99
I99
I99
I99
I99
I99
I99
I99
I99
I99
I99
I99
I99
I94
I88
I82
I76
I71
I66
I61
I57
I53
I49
I46
I43
I40
I37
I34
I32
I29
I27
I25
I24
I24
I25
I27
I29
I31
I33
I36
I38
I41
I44
I47
I50
I53
I57
I61
I65
I69
I73
I77
I82
I87
I92
I97
I99
I99
I99
I99
I99
I99
I99
I99
I99
I99
I99
I99
I99
I99
I99
I99
I99
I99
I99
I99
I99
I99
I99
I99
I99
I100
I99
I99
I99
I100
I100
I100
I99
I99
I99
I99
I99
I99
I99
I99
I99
I99
I99
I99
I99
I99
I99
I99
I99
I99
I99
I100
I100
I100
I100
I100
I100
I100
I99
I99
I99
I99
I99
I99
I99
I99
I99
I99
I99
I99
I99
I99
I99
I99
I99
I99
I99
I99
I99
I99
I99
I99
I99
I99
I99
I99
I99
I99
I99
I99
I99
I99
I99
I99
I99
I99
I99
I94
I87
I81
I75
I70
I65
I60
I56
I52
I48
I45
I41
I38
I36
I33
I31
I28
I26
I24
I23
I99
I99
I99
I99
I99
I99
I99
I99
I99
I99
I99
I99
I99
I99
I99
I99
I99
I99
I99
I99
I99
I99
I99
I99
I99
I99
I99
I99
I99
I99
I99
I99
I99
I99
I99
I99
I99
I99
I99
I99
I96
I90
I84
I77
I72
I67
I62
I58
I54
I50
I46
I43
I40
I37
I35
I32
I30
I28
I26
I24
I24
I26
I28
I30
I32
I35
I37
I40
I43
I45
I49
I52
I56
I59
I63
I67
I72
I77
I81
I86
I91
I97
I99
I99
I99
I99
I99
I99
I99
I99
I99
I99
I99
I99
I99
I99
I99
I99
I99
I99
I99
I99
I99
I99
I99
I99
I99
I99
I100
I100
I99
I99
I99
I99
I99
I99
I99
I99
I99
I99
I99
I99
I99
I99
I99
I99
I99
I99
I99
I99
I99
I99
I99
I99
I99
I100
I100
I100
I99
I99
I100
I100
I99
I99
I100
I100
I100
I99
I99
I99
I99
I99
I99
I99
I99
I99
I99
I99
I99
I99
I99
I99
I99
I99
I99
I99
I99
I99
I99
I99
I99
I99
I99
I99
I99
I99
I99
I99
I99
I99
I94
I87
I80
I75
I69
I64
I60
I55
I52
I48
I44
I41
I38
I35
I33
I31
I28
I26
I24
I23
I99
I99
I99
I99
I99
I99
I99
I99
I99
I99
I99
I99
I99
I99
I99
I99
I99
I99
I99
I99
I99
I99
I99
I99
I99
I99
I99
I99
I99
I99
I99
I99
I99
I99
I99
I99
I99
I99
I99
I99
I99
I91
I85
I79
I73
I68
I63
I59
I55
I51
I47
I44
I40
I38
I35
I32
I30
I28
I26
I24
I25
I27
I29
I31
I33
I36
I38
I41
I44
I47
I50
I54
I58
I62
I66
I70
I75
I80
I85
I90
I96
I99
I99
I99
I99
I99
I99
I99
I99
I99
I99
I99
I99
I99
I99
I99
I99
I99
I99
I99
I99
I99
I99
I99
I99
I99
I99
I99
I100
I99
I99
I99
I99
I99
I99
I99
I100
I99
I99
I99
I99
I99
I99
I99
I99
I99
I99
I99
I99
I99
I99
I99
I99
I99
I99
I100
I100
I100
I100
I99
I99
I100
I99
I99
I100
I100
I100
I100
I99
I99
I99
I99
I99
I99
I99
I99
I99
I99
I99
I99
I99
I99
I99
I99
I99
I99
I99
I99
I99
I99
I99
I99
I99
I99
I99
I99
I99
I99
I99
I99
I93
I86
I80
I74
I69
I64
I59
I55
I51
I47
I44
I41
I38
I35
I33
I30
I28
I26
I24
I23
I99
I99
I99
I99
I99
I99
I99
I99
I99
I99
I99
I99
I99
I99
I99
I99
I99
I99
I99
I99
I99
I99
I99
I99
I99
I99
I99
I99
I99
I99
I99
I99
I99
I99
I99
I99
I99
I99
I99
I99
I99
I93
I86
I80
I74
I69
I64
I59
I55
I51
I47
I44
I41
I38
I35
I33
I30
I28
I26
I24
I26
I28
I29
I31
I34
I36
I39
I42
I45
I48
I52
I55
I60
I63
I68
I73
I78
I83
I89
I94
I99
I99
I99
I99
I99
I99
I99
I99
I99
I99
I99
I99
I99
I99
I99
I99
I99
I99
I99
I99
I99
I99
I99
I99
I99
I99
I99
I99
I100
I100
I99
I99
I99
I99
I99
I99
I100
I99
I99
I99
I99
I99
I99
I99
I99
I99
I99
I99
I99
I99
I99
I99
I99
I99
I99
I99
I99
I99
I100
I100
I99
I100
I99
I99
I100
I99
I100
I100
I100
I99
I99
I99
I99
I99
I99
I99
I99
I99
I99
I99
I99
I99
I99
I99
I99
I99
I99
I99
I99
I99
I99
I99
I99
I99
I99
I99
I99
I99
I99
I99
I91
I85
I79
I73
I68
I63
I59
I55
I51
I47
I44
I40
I38
I35
I32
I30
I28
I26
I24
I22
I99
I99
I99
I99
I99
I99
I99
I99
I99
I99
I99
I99
I99
I99
I99
I99
I99
I99
I99
I99
I99
I99
I99
I99
I99
I99
I99
I99
I99
I99
I99
I99
I99
I99
I99
I99
I99
I99
I99
I99
I99
I94
I87
I80
I75
I69
I64
I60
I55
I52
I48
I44
I41
I38
I35
I33
I31
I28
I26
I24
I26
I28
I30
I32
I35
I37
I40
I43
I46
I50
I53
I57
I61
I66
I70
I75
I80
I86
I92
I99
I99
I99
I99
I99
I99
I99
I99
I99
I99
I99
I99
I99
I99
I99
I99
I99
I99
I99
I99
I99
I99
I99
I99
I99
I99
I99
I99
I99
I99
I100
I99
I99
I99
I99
I99
I99
I100
I99
I99
I99
I99
I99
I99
I99
I99
I99
I99
I99
I99
I99
I99
I99
I99
I99
I99
I99
I99
I99
I99
I100
I99
I99
I99
I100
I100
I100
I99
I100
I100
I100
I99
I99
I99
I99
I99
I99
I99
I99
I99
I99
I99
I99
I99
I99
I99
I99
I99
I99
I99
I99
I99
I99
I99
I99
I99
I99
I99
I99
I99
I96
I90
I84
I77
I72
I67
I62
I58
I54
I50
I46
I43
I40
I37
I35
I32
I30
I28
I26
I24
I22
I99
I99
I99
I99
I99
I99
I99
I99
I99
I99
I99
I99
I99
I99
I99
I99
I99
I99
I99
I99
I99
I99
I99
I99
I99
I99
I99
I99
I99
I99
I99
I99
I99
I99
I99
I99
I99
I99
I99
I99
I99
I94
I87
I81
I75
I70
I65
I60
I56
I52
I48
I45
I41
I38
I36
I33
I31
I28
I26
I24
I26
I28
I31
I33
I35
I38
I41
I44
I47
I51
I55
I58
I63
I67
I72
I77
I83
I89
I95
I99
I99
I99
I99
I99
I99
I99
I99
I99
I99
I99
I99
I99
I99
I99
I99
I99
I99
I99
I99
I99
I99
I99
I99
I99
I99
I99
I99
I99
I99
I99
I99
I99
I99
I99
I99
I99
I99
I99
I99
I99
I99
I99
I99
I99
I99
I99
I99
I99
I99
I99
I99
I99
I99
I99
I99
I99
I99
I99
I99
I99
I100
I99
I100
I100
I100
I99
I99
I99
I100
I100
I100
I99
I99
I99
I99
I99
I99
I99
I99
I99
I99
I99
I99
I99
I99
I99
I99
I99
I99
I99
I99
I99
I99
I99
I99
I99
I99
I99
I99
I94
I88
I82
I76
I71
I66
I61
I57
I53
I49
I46
I43
I40
I37
I34
I32
I29
I27
I25
I24
I22
I99
I99
I99
I99
I99
I99
I99
I99
I99
I99
I99
I99
I99
I99
I99
I99
I99
I99
I99
I99
I100
I100
I100
I100
I99
I99
I99
I99
I99
I99
I99
I99
I99
I99
I99
I99
I99
I99
I99
I99
I99
I94
I87
I81
I75
I70
I65
I60
I56
I52
I48
I45
I41
I38
I36
I33
I31
I28
I26
I25
I27
I29
I31
I33
I36
I39
I42
I45
I48
I52
I56
I60
I64
I69
I74
I80
I86
I92
I99
I99
I99
I99
I99
I99
I99
I99
I99
I99
I99
I99
I99
I99
I99
I99
I99
I99
I99
I99
I99
I99
I99
I99
I99
I99
I99
I99
I99
I99
I99
I99
I99
I99
I99
I100
I99
I99
I99
I99
I99
I99
I99
I99
I99
I99
I99
I99
I99
I99
I99
I99
I99
I99
I99
I99
I99
I99
I99
I99
I99
I99
I99
I99
I99
I99
I100
I99
I100
I99
I99
I99
I100
I100
I99
I99
I99
I99
I99
I99
I99
I99
I99
I99
I99
I99
I99
I99
I99
I99
I99
I99
I99
I99
I99
I99
I99
I99
I99
I99
I99
I92
I86
I80
I74
I69
I64
I60
I56
I52
I48
I45
I42
I39
I36
I33
I31
I29
I27
I25
I23
I21
I99
I99
I99
I99
I99
I99
I99
I99
I99
I99
I99
I99
I99
I99
I99
I99
I99
I99
I100
I100
I100
I100
I100
I100
I99
I99
I99
I99
I99
I99
I99
I99
I99
I99
I99
I99
I99
I99
I99
I99
I99
I94
I87
I81
I75
I70
I65
I60
I56
I52
I48
I45
I41
I38
I36
I33
I31
I28
I26
I25
I27
I29
I32
I34
I37
I40
I43
I46
I49
I53
I57
I61
I66
I71
I76
I82
I88
I94
I99
I99
I99
I99
I99
I99
I99
I99
I99
I99
I99
I99
I99
I99
I99
I99
I99
I99
I99
I99
I99
I99
I99
I99
I99
I99
I99
I99
I99
I99
I99
I99
I99
I99
I99
I99
I100
I99
I99
I99
I99
I99
I99
I99
I99
I99
I99
I99
I99
I99
I99
I99
I99
I99
I99
I99
I99
I99
I99
I99
I99
I99
I99
I99
I99
I99
I99
I99
I100
I100
I99
I99
I99
I100
I100
I99
I99
I99
I99
I99
I99
I99
I99
I99
I99
I99
I99
I99
I99
I99
I99
I99
I99
I99
I99
I99
I99
I99
I99
I99
I95
I89
I83
I77
I72
I67
I63
I58
I55
I51
I47
I44
I41
I38
I35
I33
I31
I28
I26
I24
I23
I21
I99
I99
I99
I99
I99
I99
I99
I99
I99
I99
I99
I99
I99
I99
I99
I99
I99
I99
I100
I100
I100
I100
I100
I100
I99
I99
I99
I99
I99
I99
I99
I99
I99
I99
I99
I99
I99
I99
I99
I99
I99
I94
I87
I81
I75
I70
I65
I60
I56
I52
I48
I45
I41
I38
I36
I33
I31
I28
I26
I26
I28
I30
I32
I35
I37
I40
I43
I46
I50
I54
I58
I62
I67
I72
I77
I84
I90
I96
I99
I99
I99
I99
I99
I99
I99
I99
I99
I99
I99
I99
I99
I99
I99
I99
I99
I99
I99
I99
I99
I99
I99
I99
I99
I99
I99
I99
I99
I99
I99
I99
I99
I99
I99
I99
I99
I99
I99
I99
I99
I99
I99
I99
I99
I99
I99
I99
I99
I99
I99
I99
I99
I99
I99
I99
I99
I99
I99
I99
I99
I99
I99
I99
I99
I99
I99
I99
I99
I100
I99
I99
I99
I99
I99
I99
I99
I99
I99
I99
I99
I99
I99
I99
I99
I99
I99
I99
I99
I99
I99
I99
I99
I99
I99
I99
I99
I99
I99
I99
I92
I86
I80
I75
I70
I66
I61
I57
I53
I50
I46
I43
I40
I37
I35
I32
I30
I28
I26
I24
I23
I21
I99
I99
I99
I99
I99
I99
I99
I99
I99
I99
I99
I99
I99
I99
I99
I99
I99
I99
I100
I99
I100
I100
I100
I100
I99
I99
I99
I99
I99
I99
I99
I99
I99
I99
I99
I99
I99
I99
I99
I99
I99
I94
I87
I81
I75
I70
I65
I60
I56
I52
I48
I45
I41
I38
I36
I33
I31
I28
I26
I26
I28
I30
I32
I35
I38
I40
I44
I47
I51
I55
I59
I63
I68
I73
I79
I85
I91
I99
I99
I99
I99
I99
I99
I99
I99
I99
I99
I99
I99
I99
I99
I99
I99
I99
I99
I99
I99
I99
I99
I99
I99
I99
I99
I99
I99
I99
I99
I99
I99
I99
I99
I99
I99
I99
I99
I99
I99
I99
I99
I99
I99
I99
I99
I99
I99
I99
I99
I99
I99
I99
I99
I99
I99
I99
I99
I99
I99
I99
I99
I99
I99
I99
I99
I99
I99
I99
I99
I99
I100
I100
I99
I99
I99
I99
I99
I99
I99
I99
I99
I99
I99
I99
I99
I99
I99
I99
I99
I99
I99
I99
I99
I99
I99
I99
I99
I99
I99
I94
I89
I83
I78
I73
I68
I63
I60
I55
I52
I48
I45
I42
I39
I36
I34
I31
I29
I28
I26
I24
I22
I21
I99
I99
I99
I99
I99
I99
I99
I99
I99
I99
I99
I99
I99
I99
I99
I99
I99
I99
I99
I99
I100
I99
I100
I99
I99
I99
I99
I99
I99
I99
I99
I99
I99
I99
I99
I99
I99
I99
I99
I99
I99
I94
I87
I81
I75
I70
I65
I60
I56
I52
I48
I45
I41
I38
I36
I33
I31
I28
I26
I26
I28
I30
I33
I35
I38
I41
I44
I47
I51
I55
I59
I64
I69
I74
I80
I86
I93
I99
I99
I99
I99
I99
I99
I99
I99
I99
I99
I99
I99
I99
I99
I99
I99
I99
I99
I99
I99
I99
I99
I99
I99
I99
I99
I99
I99
I99
I99
I99
I99
I99
I99
I99
I99
I99
I99
I99
I99
I99
I99
I99
I99
I99
I99
I99
I99
I99
I99
I99
I99
I99
I99
I99
I99
I99
I99
I99
I99
I99
I99
I99
I99
I99
I99
I99
I99
I99
I99
I99
I99
I99
I100
I99
I99
I99
I99
I99
I99
I99
I99
I99
I99
I99
I99
I99
I99
I99
I99
I99
I99
I99
I99
I99
I99
I99
I99
I99
I96
I90
I85
I80
I75
I70
I66
I62
I58
I54
I50
I47
I44
I41
I38
I36
I33
I31
I29
I27
I25
I23
I22
I20
I99
I99
I99
I99
I99
I99
I99
I99
I99
I99
I99
I99
I99
I99
I99
I99
I99
I99
I99
I99
I99
I99
I99
I99
I99
I99
I99
I99
I99
I99
I99
I99
I99
I99
I99
I99
I99
I99
I99
I99
I99
I94
I87
I80
I75
I69
I64
I60
I55
I52
I48
I44
I41
I38
I35
I33
I31
I28
I26
I26
I28
I31
I33
I35
I38
I41
I44
I48
I52
I55
I60
I64
I69
I75
I80
I87
I94
I99
I99
I99
I99
I99
I99
I99
I99
I99
I99
I99
I99
I99
I99
I99
I99
I99
I99
I99
I99
I99
I100
I99
I99
I99
I99
I99
I99
I99
I99
I99
I99
I99
I99
I99
I99
I99
I99
I99
I99
I99
I99
I99
I99
I99
I99
I99
I99
I99
I99
I99
I99
I99
I99
I99
I99
I99
I99
I99
I99
I99
I99
I99
I99
I99
I99
I99
I99
I99
I99
I99
I99
I99
I99
I99
I99
I99
I99
I99
I99
I99
I99
I99
I99
I99
I99
I99
I99
I99
I99
I99
I99
I99
I99
I99
I99
I99
I99
I97
I91
I86
I81
I77
I72
I67
I63
I59
I56
I52
I49
I45
I43
I40
I37
I35
I32
I30
I28
I26
I24
I23
I21
I20
I99
I99
I99
I99
I99
I99
I99
I99
I99
I100
I99
I99
I99
I99
I99
I99
I99
I99
I99
I99
I99
I99
I99
I99
I99
I99
I99
I99
I99
I99
I99
I99
I99
I99
I99
I99
I99
I99
I99
I99
I99
I93
I86
I80
I74
I69
I64
I59
I55
I51
I47
I44
I41
I38
I35
I33
I30
I28
I26
I26
I28
I31
I33
I36
I38
I41
I45
I48
I52
I56
I60
I65
I70
I75
I81
I87
I94
I99
I99
I99
I99
I99
I99
I99
I99
I99
I99
I99
I99
I99
I99
I99
I99
I99
I99
I99
I99
I99
I100
I99
I99
I99
I99
I99
I99
I99
I99
I99
I99
I99
I99
I99
I99
I99
I99
I99
I99
I99
I99
I99
I99
I99
I99
I99
I99
I99
I99
I99
I99
I99
I99
I99
I99
I99
I99
I99
I99
I99
I99
I99
I99
I99
I99
I99
I99
I99
I99
I99
I99
I99
I99
I99
I99
I99
I99
I99
I99
I99
I99
I99
I99
I99
I99
I99
I99
I99
I99
I99
I99
I99
I99
I99
I99
I99
I97
I92
I87
I82
I77
I73
I69
I65
I61
I57
I53
I50
I47
I44
I41
I38
I36
I33
I31
I29
I27
I25
I24
I22
I21
I19
I99
I99
I99
I99
I99
I99
I99
I99
I99
I100
I99
I99
I99
I99
I99
I99
I99
I99
I99
I99
I99
I99
I99
I99
I99
I99
I99
I99
I99
I99
I99
I99
I99
I99
I99
I99
I99
I99
I99
I99
I99
I91
I85
I79
I73
I68
I63
I59
I55
I51
I47
I44
I40
I38
I35
I32
I30
I28
I26
I26
I28
I31
I33
I36
I38
I41
I45
I48
I52
I56
I60
I65
I70
I75
I81
I87
I94
I99
I99
I99
I99
I99
I99
I99
I99
I99
I99
I99
I99
I99
I99
I99
I99
I99
I100
I100
I100
I100
I99
I99
I99
I99
I99
I99
I99
I99
I99
I99
I99
I99
I99
I99
I99
I99
I99
I99
I99
I99
I99
I99
I99
I99
I99
I99
I99
I99
I99
I99
I99
I99
I99
I99
I99
I99
I99
I99
I99
I99
I99
I99
I99
I99
I99
I99
I99
I99
I99
I99
I99
I99
I99
I99
I99
I99
I99
I99
I99
I99
I99
I99
I99
I99
I99
I99
I99
I99
I99
I99
I99
I99
I99
I99
I99
I96
I91
I87
I82
I78
I74
I70
I66
I62
I58
I55
I52
I48
I45
I42
I40
I37
I35
I33
I30
I28
I26
I25
I23
I21
I20
I19
I99
I99
I99
I99
I99
I99
I99
I99
I99
I100
I100
I99
I99
I99
I99
I99
I99
I99
I99
I99
I99
I99
I99
I99
I99
I99
I99
I99
I99
I99
I99
I99
I99
I99
I99
I99
I99
I99
I99
I99
I96
I90
I84
I77
I72
I67
I62
I58
I54
I50
I46
I43
I40
I37
I35
I32
I30
I28
I26
I26
I28
I31
I33
I36
I38
I41
I45
I48
I52
I56
I60
I65
I70
I75
I81
I87
I94
I99
I99
I99
I99
I99
I99
I99
I99
I99
I99
I99
I99
I99
I99
I99
I99
I99
I100
I100
I100
I99
I99
I100
I99
I99
I99
I99
I99
I99
I99
I99
I99
I99
I99
I99
I99
I99
I99
I99
I99
I99
I99
I99
I99
I99
I99
I99
I99
I99
I99
I99
I99
I99
I99
I99
I99
I99
I99
I99
I99
I99
I99
I99
I99
I99
I99
I99
I99
I99
I99
I99
I99
I99
I99
I99
I99
I99
I99
I99
I99
I99
I99
I99
I99
I99
I99
I99
I99
I99
I99
I99
I99
I99
I99
I99
I94
I90
I86
I82
I78
I74
I70
I67
I63
I59
I56
I53
I50
I46
I43
I41
I38
I36
I34
I31
I29
I28
I26
I24
I23
I21
I19
I18
I99
I99
I99
I99
I99
I99
I99
I99
I99
I100
I100
I99
I99
I99
I99
I99
I99
I99
I99
I99
I99
I99
I99
I99
I99
I99
I99
I99
I99
I99
I99
I99
I99
I99
I99
I99
I99
I99
I99
I99
I94
I88
I82
I76
I71
I66
I61
I57
I53
I49
I46
I43
I40
I37
I34
I32
I29
I27
I25
I26
I28
I31
I33
I36
I38
I41
I45
I48
I52
I56
I60
I65
I70
I75
I81
I87
I94
I99
I99
I99
I99
I99
I99
I99
I99
I99
I99
I99
I99
I99
I99
I99
I99
I99
I100
I100
I99
I99
I99
I100
I99
I99
I99
I99
I99
I99
I99
I99
I99
I99
I99
I99
I99
I99
I99
I99
I99
I99
I99
I99
I99
I99
I99
I99
I99
I99
I99
I99
I99
I99
I99
I99
I99
I99
I99
I99
I99
I100
I99
I99
I99
I99
I99
I99
I99
I99
I99
I99
I99
I99
I99
I99
I99
I99
I99
I99
I99
I99
I99
I99
I99
I99
I99
I99
I99
I99
I99
I99
I99
I99
I95
I92
I89
I85
I81
I77
I74
I70
I67
I63
I60
I57
I53
I50
I47
I45
I42
I39
I37
I35
I32
I30
I28
I26
I25
I23
I22
I20
I19
I18
I99
I99
I99
I99
I99
I99
I99
I99
I99
I99
I99
I99
I99
I99
I99
I99
I99
I99
I99
I99
I99
I99
I99
I99
I99
I99
I99
I99
I99
I99
I99
I99
I99
I99
I99
I99
I99
I99
I99
I99
I92
I86
I80
I74
I69
I64
I60
I56
I52
I48
I45
I42
I39
I36
I33
I31
I29
I27
I25
I26
I28
I31
I33
I36
I38
I41
I45
I48
I52
I56
I60
I65
I70
I75
I81
I87
I94
I99
I99
I99
I99
I99
I99
I99
I99
I99
I99
I99
I99
I99
I99
I99
I99
I99
I99
I99
I99
I99
I99
I99
I99
I99
I99
I99
I99
I99
I99
I99
I99
I99
I99
I99
I99
I99
I99
I99
I99
I99
I99
I99
I99
I99
I99
I99
I99
I99
I99
I99
I99
I99
I99
I99
I99
I99
I99
I99
I99
I99
I99
I99
I99
I99
I99
I99
I99
I99
I99
I99
I99
I99
I99
I99
I99
I99
I99
I99
I99
I99
I99
I99
I99
I99
I99
I99
I99
I99
I99
I99
I94
I92
I89
I86
I83
I80
I77
I73
I70
I67
I63
I60
I57
I54
I51
I48
I45
I43
I40
I38
I35
I33
I31
I29
I28
I26
I24
I23
I21
I19
I18
I17
I99
I99
I99
I99
I99
I99
I99
I99
I99
I99
I99
I99
I99
I99
I99
I99
I99
I99
I99
I99
I99
I99
I99
I99
I99
I99
I99
I99
I99
I99
I99
I99
I99
I99
I99
I99
I99
I99
I99
I95
I89
I83
I77
I72
I67
I63
I58
I55
I51
I47
I44
I41
I38
I35
I33
I31
I28
I26
I24
I26
I28
I31
I33
I35
I38
I41
I44
I48
I52
I55
I60
I64
I69
I75
I80
I87
I94
I99
I99
I99
I99
I99
I99
I99
I99
I99
I99
I99
I99
I99
I99
I99
I99
I99
I99
I99
I99
I99
I99
I99
I99
I99
I99
I99
I99
I99
I99
I99
I99
I99
I99
I99
I99
I99
I99
I99
I99
I99
I99
I99
I99
I99
I99
I99
I99
I99
I99
I99
I99
I99
I99
I99
I99
I99
I99
I99
I99
I99
I99
I99
I99
I99
I99
I99
I99
I99
I99
I99
I99
I99
I99
I99
I99
I99
I99
I99
I99
I99
I99
I99
I99
I99
I99
I99
I99
I99
I99
I94
I89
I86
I83
I80
I78
I75
I72
I69
I66
I63
I60
I57
I54
I51
I48
I46
I43
I41
I38
I36
I34
I32
I30
I28
I26
I25
I23
I22
I20
I19
I18
I17
I99
I99
I99
I99
I99
I99
I99
I99
I99
I99
I99
I99
I99
I99
I99
I99
I99
I99
I99
I99
I99
I99
I99
I99
I99
I99
I99
I99
I99
I99
I99
I99
I99
I99
I99
I99
I99
I99
I99
I92
I86
I80
I75
I70
I66
I61
I57
I53
I50
I46
I43
I40
I37
I35
I32
I30
I28
I26
I24
I26
I28
I30
I33
I35
I38
I41
I44
I47
I51
I55
I59
I64
I69
I74
I80
I86
I93
I99
I99
I99
I99
I99
I99
I99
I99
I99
I99
I99
I99
I99
I99
I99
I99
I99
I99
I99
I99
I99
I99
I99
I99
I99
I99
I99
I99
I99
I99
I99
I99
I99
I99
I99
I99
I99
I99
I99
I99
I99
I99
I99
I99
I99
I99
I99
I99
I99
I99
I99
I99
I99
I99
I99
I99
I99
I99
I99
I99
I99
I99
I99
I99
I99
I99
I99
I99
I99
I99
I99
I99
I99
I99
I99
I99
I99
I99
I99
I99
I99
I99
I99
I99
I99
I99
I99
I99
I99
I96
I90
I85
I80
I77
I75
I73
I70
I67
I65
I62
I59
I57
I54
I51
I48
I46
I43
I41
I39
I36
I35
I33
I31
I29
I27
I25
I24
I22
I21
I19
I18
I17
I16
I99
I99
I99
I99
I99
I99
I99
I99
I99
I99
I99
I99
I99
I99
I99
I99
I99
I99
I99
I99
I99
I99
I99
I99
I99
I99
I99
I99
I99
I99
I99
I99
I99
I99
I99
I99
I99
I99
I94
I89
I83
I78
I73
I68
I63
I60
I55
I52
I48
I45
I42
I39
I36
I34
I31
I29
I28
I26
I24
I26
I28
I30
I32
I35
I38
I40
I44
I47
I51
I55
I59
I63
I68
I73
I79
I85
I91
I99
I99
I99
I99
I99
I99
I99
I99
I99
I99
I99
I99
I99
I99
I99
I99
I99
I99
I99
I99
I99
I99
I99
I99
I99
I99
I99
I99
I99
I99
I99
I99
I99
I99
I99
I99
I99
I99
I99
I99
I99
I99
I99
I99
I99
I99
I99
I99
I99
I99
I99
I99
I99
I99
I99
I99
I99
I99
I99
I99
I99
I99
I99
I99
I99
I99
I99
I99
I99
I99
I99
I99
I99
I99
I99
I99
I99
I99
I99
I99
I99
I99
I99
I99
I99
I99
I99
I99
I99
I92
I86
I81
I77
I72
I70
I68
I66
I63
I61
I58
I56
I53
I51
I48
I46
I44
I41
I39
I37
I35
I33
I31
I29
I28
I26
I24
I23
I21
I20
I19
I18
I16
I16
I99
I99
I99
I99
I99
I99
I99
I99
I99
I99
I99
I99
I99
I99
I99
I99
I99
I99
I99
I99
I99
I99
I99
I99
I99
I99
I99
I99
I99
I99
I99
I99
I99
I99
I99
I99
I99
I96
I90
I85
I80
I75
I70
I66
I62
I58
I54
I50
I47
I44
I41
I38
I36
I33
I31
I29
I27
I25
I24
I26
I28
I30
I32
I35
I37
I40
I43
I46
I50
I54
I58
I62
I67
I72
I77
I84
I90
I96
I99
I99
I99
I99
I99
I99
I99
I99
I99
I99
I99
I99
I99
I99
I99
I99
I99
I99
I99
I99
I99
I99
I99
I99
I99
I99
I99
I99
I99
I99
I99
I99
I99
I99
I99
I99
I99
I99
I99
I99
I99
I99
I99
I99
I99
I99
I99
I99
I99
I99
I99
I99
I99
I99
I99
I99
I99
I99
I99
I99
I99
I99
I99
I99
I99
I99
I99
I99
I99
I99
I99
I99
I99
I99
I99
I99
I99
I99
I99
I99
I99
I99
I99
I99
I99
I99
I99
I94
I89
I83
I78
I73
I69
I66
I63
I62
I59
I57
I55
I53
I50
I48
I46
I43
I41
I39
I37
I35
I33
I31
I29
I28
I26
I25
I23
I22
I21
I19
I18
I17
I16
I15
I99
I99
I99
I99
I99
I99
I99
I99
I99
I99
I99
I99
I99
I99
I99
I99
I99
I99
I99
I99
I99
I99
I99
I99
I99
I99
I99
I99
I99
I99
I99
I99
I99
I99
I99
I99
I97
I91
I86
I81
I77
I72
I67
I63
I59
I56
I52
I49
I45
I43
I40
I37
I35
I32
I30
I28
I26
I24
I24
I25
I27
I29
I32
I34
I37
I40
I43
I46
I49
I53
I57
I61
I66
I71
I76
I82
I88
I94
I99
I99
I99
I99
I99
I99
I99
I99
I99
I99
I99
I99
I99
I99
I99
I99
I99
I99
I99
I99
I99
I99
I99
I99
I99
I99
I99
I99
I99
I99
I99
I99
I99
I99
I99
I99
I99
I99
I99
I99
I99
I99
I99
I99
I99
I99
I99
I99
I99
I99
I99
I99
I99
I99
I99
I99
I99
I99
I99
I99
I99
I99
I99
I99
I99
I99
I99
I99
I99
I99
I99
I99
I99
I99
I99
I99
I99
I99
I99
I99
I99
I99
I99
I99
I99
I99
I96
I90
I85
I80
I75
I70
I66
I62
I60
I58
I56
I53
I52
I50
I47
I45
I43
I41
I39
I37
I35
I33
I32
I30
I28
I27
I25
I24
I22
I21
I20
I19
I18
I16
I15
I14
I99
I99
I99
I99
I99
I99
I99
I99
I99
I99
I99
I99
I99
I99
I99
I99
I99
I99
I99
I99
I99
I99
I99
I99
I99
I99
I99
I99
I99
I99
I99
I99
I99
I99
I99
I97
I92
I87
I82
I77
I73
I69
I65
I61
I57
I53
I50
I47
I44
I41
I38
I36
I33
I31
I29
I27
I25
I24
I23
I25
I27
I29
I31
I33
I36
I39
I42
I45
I48
I52
I56
I60
I64
I69
I74
I80
I86
I92
I99
I99
I99
I99
I99
I99
I99
I99
I99
I99
I99
I99
I99
I99
I99
I99
I99
I99
I99
I99
I99
I99
I99
I99
I99
I99
I99
I99
I99
I99
I99
I99
I99
I99
I99
I99
I99
I99
I99
I99
I99
I99
I99
I99
I99
I99
I99
I99
I99
I99
I99
I99
I99
I99
I99
I99
I99
I99
I99
I99
I99
I99
I99
I99
I99
I99
I99
I99
I99
I99
I99
I99
I99
I99
I99
I99
I99
I99
I99
I99
I99
I99
I99
I99
I99
I97
I91
I86
I81
I77
I72
I67
I63
I59
I56
I54
I52
I50
I48
I46
I45
I43
I41
I39
I37
I35
I33
I32
I30
I28
I27
I25
I24
I23
I21
I20
I19
I18
I17
I16
I15
I14
I99
I99
I99
I99
I99
I99
I99
I99
I99
I99
I99
I99
I99
I99
I99
I99
I99
I99
I99
I99
I99
I99
I99
I99
I99
I99
I99
I99
I99
I99
I99
I99
I99
I99
I97
I92
I87
I82
I78
I74
I70
I66
I62
I58
I55
I52
I48
I45
I42
I40
I37
I35
I33
I30
I28
I26
I25
I23
I23
I24
I26
I28
I31
I33
I35
I38
I41
I44
I47
I51
I55
I58
I63
I67
I72
I77
I83
I89
I95
I99
I99
I99
I99
I99
I99
I99
I99
I99
I99
I99
I99
I99
I99
I99
I99
I99
I99
I99
I99
I99
I99
I99
I99
I99
I99
I99
I99
I99
I99
I99
I99
I99
I99
I99
I99
I99
I99
I99
I99
I99
I99
I99
I99
I99
I99
I99
I99
I99
I99
I99
I99
I99
I99
I99
I99
I99
I99
I99
I99
I99
I99
I99
I99
I99
I99
I99
I99
I99
I99
I99
I99
I99
I99
I99
I99
I99
I99
I99
I99
I99
I99
I99
I97
I92
I87
I82
I77
I73
I69
I65
I61
I57
I53
I50
I49
I47
I45
I43
I42
I40
I38
I36
I35
I33
I32
I30
I28
I27
I26
I24
I23
I22
I20
I19
I18
I17
I16
I15
I14
I13
I99
I99
I99
I99
I99
I99
I99
I99
I99
I99
I99
I99
I99
I99
I99
I99
I99
I99
I99
I99
I99
I99
I99
I99
I99
I99
I99
I99
I99
I99
I99
I99
I99
I96
I91
I87
I82
I78
I74
I70
I67
I63
I59
I56
I53
I50
I46
I43
I41
I38
I36
I34
I31
I29
I28
I26
I24
I23
I23
I24
I26
I28
I30
I32
I35
I37
I40
I43
I46
I50
I53
I57
I61
I66
I70
I75
I80
I86
I92
I99
I99
I99
I99
I99
I99
I99
I99
I99
I99
I99
I99
I99
I99
I99
I99
I99
I99
I99
I99
I99
I99
I99
I99
I99
I99
I99
I99
I99
I99
I99
I99
I99
I99
I99
I99
I99
I99
I99
I99
I96
I94
I92
I99
I99
I99
I99
I99
I99
I99
I99
I99
I99
I99
I99
I99
I99
I99
I99
I99
I99
I99
I99
I99
I99
I99
I99
I99
I99
I99
I99
I99
I99
I99
I99
I99
I99
I99
I99
I99
I99
I99
I96
I91
I87
I82
I78
I74
I70
I66
I62
I58
I55
I52
I48
I45
I44
I42
I41
I39
I38
I36
I35
I33
I31
I30
I28
I27
I26
I24
I23
I22
I21
I19
I18
I17
I16
I15
I14
I14
I13
I99
I99
I99
I99
I99
I99
I99
I99
I99
I99
I99
I99
I99
I99
I99
I99
I99
I99
I99
I99
I99
I99
I99
I99
I99
I99
I99
I99
I99
I99
I99
I99
I94
I90
I86
I82
I78
I74
I70
I67
I63
I60
I57
I53
I50
I47
I45
I42
I39
I37
I35
I32
I30
I28
I26
I25
I23
I22
I22
I24
I26
I28
I29
I31
I34
I36
I39
I42
I45
I48
I52
I55
I60
I63
I68
I73
I78
I83
I89
I94
I99
I99
I99
I99
I99
I99
I99
I99
I99
I99
I99
I99
I99
I99
I99
I99
I99
I99
I99
I99
I99
I99
I99
I99
I99
I99
I99
I99
I99
I99
I99
I99
I99
I99
I94
I94
I94
I93
I91
I90
I88
I89
I94
I99
I99
I99
I99
I99
I99
I99
I99
I99
I99
I99
I99
I99
I99
I99
I99
I99
I99
I99
I99
I99
I99
I99
I99
I99
I99
I99
I99
I99
I99
I99
I99
I99
I99
I99
I99
I99
I94
I90
I86
I82
I78
I74
I70
I67
I63
I59
I56
I53
I50
I46
I43
I41
I40
I38
I37
I35
I34
I33
I31
I29
I28
I27
I26
I24
I23
I22
I21
I19
I19
I18
I16
I16
I15
I14
I13
I12
I99
I99
I99
I99
I99
I99
I99
I99
I99
I99
I99
I99
I99
I99
I99
I99
I99
I99
I99
I99
I99
I99
I99
I99
I99
I99
I99
I99
I99
I99
I95
I92
I89
I85
I81
I77
I74
I70
I67
I63
I60
I57
I54
I51
I48
I45
I43
I40
I38
I35
I33
I31
I29
I28
I26
I24
I23
I21
I22
I23
I25
I27
I29
I31
I33
I36
I38
I41
I44
I47
I50
I54
I58
I62
I66
I70
I75
I80
I85
I90
I96
I99
I99
I99
I99
I99
I99
I99
I99
I99
I99
I99
I99
I99
I99
I99
I99
I99
I99
I99
I99
I99
I99
I99
I99
I99
I99
I99
I99
I99
I99
I99
I99
I96
I90
I87
I87
I86
I85
I84
I82
I85
I90
I96
I99
I99
I99
I99
I99
I99
I99
I99
I99
I99
I99
I99
I99
I99
I99
I99
I99
I99
I99
I99
I99
I99
I99
I99
I99
I99
I99
I99
I99
I99
I99
I99
I99
I99
I95
I92
I89
I85
I81
I77
I74
I70
I67
I63
I60
I57
I53
I50
I47
I45
I42
I39
I37
I36
I35
I33
I32
I31
I29
I28
I27
I25
I24
I23
I22
I21
I20
I19
I18
I17
I16
I15
I14
I13
I12
I12
tp37
absS'tf_base_to_odom'
p38
((lp39
F0.2909259679073245
aF0.3147283156196586
aF0.0
a(lp40
F0.0
aF0.0
aF-0.45101712995063886
aF0.8925152931412932
atp41
sb.